ccollections
defaultdict
p1
(c__builtin__
list
p2
tRp3
S''
(lp4
S'ID:0000075'
p5
aS'ID:0000086'
p6
aS'ID:0000095'
p7
aS'ID:0000099'
p8
aS'ID:0000138'
p9
aS'ID:0000139'
p10
asS'gullie'
p11
(lp12
S'ENVO:00000129'
p13
asS'board walk'
p14
(lp15
S'ENVO:00000064'
p16
asS'covered bridge'
p17
(lp18
S'ENVO:00000075'
p19
asS'salt flat'
p20
(lp21
S'ENVO:00000279'
p22
asS'apple beverage'
p23
(lp24
S'ENVO:0010010'
p25
asS'heavy metal'
p26
(lp27
S'ID:0000135'
p28
asS'wave-cut platform'
p29
(lp30
S'ENVO:00000421'
p31
asS'Mediterranean Division (260)'
p32
(lp33
S'ENVO:00003017'
p34
asS'marine downwelling'
p35
(lp36
S'ENVO:01000064'
p37
asS'submarine volcano'
p38
(lp39
S'ENVO:00000264'
p40
aS'ENVO:00000405'
p41
asS'artificial harbour'
p42
(lp43
S'ENVO:00000464'
p44
asS'sea arch'
p45
(lp46
S'ENVO:00000414'
p47
asS'intermittent wetland'
p48
(lp49
S'ENVO:00000389'
p50
ag50
asS'hyacinth bean product'
p51
(lp52
S'ENVO:0010120'
p53
asS'salt pork'
p54
(lp55
S'ENVO:00003913'
p56
asS'rise'
p57
(lp58
S'ENVO:00000477'
p59
asS'dell'
p60
(lp61
S'ENVO:00000439'
p62
asS'closed sea'
p63
(lp64
S'ENVO:00000016'
p65
asS'bacon curing brine'
p66
(lp67
S'ENVO:00003045'
p68
asS'fermented agave juice'
p69
(lp70
S'ENVO:00002161'
p71
asS'interdune trough'
p72
(lp73
S'ENVO:00000170'
p74
aS'ENVO:00000308'
p75
ag75
asS'rift zone'
p76
(lp77
S'ENVO:00000302'
p78
asS'sand pit'
p79
(lp80
S'ENVO:00000028'
p81
asS'geothermal power plant'
p82
(lp83
S'ENVO:00002215'
p84
asS'glacer'
p85
(lp86
S'ENVO:00000131'
p87
asS'microbial food product'
p88
(lp89
S'ENVO:0010057'
p90
asS'sheep milk'
p91
(lp92
S'ENVO:00003069'
p93
asS'fault escarpment'
p94
(lp95
S'ENVO:00000281'
p96
asS'hooked spit'
p97
(lp98
S'ENVO:00000167'
p99
asS'coal mine lake sediment'
p100
(lp101
S'ENVO:00002147'
p102
asS'pond soil'
p103
(lp104
S'ENVO:00005764'
p105
asS'sandy area'
p106
(lp107
g74
ag74
ag74
aS'ENVO:00000172'
p108
ag108
ag108
asS'nursery'
p109
(lp110
S'ENVO:00000077'
p111
ag111
aS'ENVO:00000078'
p112
asS'Tropical and subtropical moist broadleaf forest biome'
p113
(lp114
S'ENVO:00000879'
p115
asS'distributary'
p116
(lp117
S'ENVO:00000069'
p118
ag118
ag118
asS'force'
p119
(lp120
S'ENVO:00000040'
p121
asS'bacon'
p122
(lp123
S'ENVO:00003881'
p124
asS'shrubland'
p125
(lp126
S'ENVO:00000107'
p127
aS'ENVO:00000231'
p128
aS'ENVO:00000300'
p129
ag129
asS'Tundra communities and barren Arctic deserts'
p130
(lp131
S'ENVO:00002995'
p132
asS'street'
p133
(lp134
g16
ag16
ag16
ag16
asS'water buffalo dairy product'
p135
(lp136
S'ENVO:0010028'
p137
asS'neutral hot spring'
p138
(lp139
S'ENVO:00002181'
p140
asS'flood plain'
p141
(lp142
S'ENVO:00000255'
p143
asS'collected during the ARCHIMEDES 3 cruise with RV Pelagia 7155m'
p144
(lp145
S'ID:0000134'
p146
asS'mine dump'
p147
(lp148
S'ENVO:00000003'
p149
asS'CIRQUE'
p150
(lp151
S'ENVO:00000155'
p152
asS'hide'
p153
(lp154
S'ENVO:02000053'
p155
asS'dry cave'
p156
(lp157
S'ENVO:00000030'
p158
asS'food processing factory'
p159
(lp160
S'ENVO:00003863'
p161
asS'fjord'
p162
(lp163
S'ENVO:00000039'
p164
ag164
asS'political entity'
p165
(lp166
S'ENVO:00000009'
p167
aS'ENVO:00000123'
p168
ag168
asS'solanaceous root product'
p169
(lp170
S'ENVO:0010058'
p171
asS'anthrosol'
p172
(lp173
S'ENVO:00002230'
p174
asS'cow rumen'
p175
(lp176
S'ID:0000006'
p177
asS'karst cave'
p178
(lp179
S'ENVO:00012411'
p180
asS'tissue sample from biopsy'
p181
(lp182
S'ID:0000050'
p183
asS'volcanic dyke'
p184
(lp185
S'ENVO:00000498'
p186
asS'oceanic front'
p187
(lp188
S'ENVO:01000071'
p189
asS'lithosphere'
p190
(lp191
S'ID:0000046'
p192
asS'subterranean water'
p193
(lp194
S'ENVO:00005792'
p195
asS'fourth-order administrative division'
p196
(lp197
S'ENVO:00000008'
p198
asS'SALT PAN'
p199
(lp200
g22
asS'lode'
p201
(lp202
S'ENVO:00000023'
p203
aS'ENVO:00000029'
p204
asS'shelf valley'
p205
(lp206
S'ENVO:00000100'
p207
asS'hypersaline water'
p208
(lp209
S'ENVO:00002012'
p210
asS'beck'
p211
(lp212
g203
ag204
asS'umbrella'
p213
(lp214
S'ENVO:02000052'
p215
asS'agricultural reserve'
p216
(lp217
g111
ag111
asS'ethanol'
p218
(lp219
S'ID:0000088'
p220
asS'sea cave'
p221
(lp222
S'ENVO:00000326'
p223
asS'grazing area'
p224
(lp225
S'ENVO:00000106'
p226
ag226
aS'ENVO:00000266'
p227
asS'first-order administrative region'
p228
(lp229
S'ENVO:00000005'
p230
asS'arroyo'
p231
(lp232
S'ENVO:00000031'
p233
asS'yougert'
p234
(lp235
S'ENVO:00002190'
p236
asS'volcanic cone'
p237
(lp238
S'ENVO:00000398'
p239
asS'abode soil'
p240
(lp241
S'ENVO:00002870'
p242
asS'leaves'
p243
(lp244
S'ID:0000014'
p245
asS'arches (natural formation)'
p246
(lp247
g47
asS'cacao food product'
p248
(lp249
S'ENVO:0010127'
p250
asS'WATERCOURSE BRIDGE'
p251
(lp252
S'ENVO:00000072'
p253
asS'cruciferous food product'
p254
(lp255
S'ENVO:0010081'
p256
asS'MORAINE'
p257
(lp258
S'ENVO:00000177'
p259
asS'llanos'
p260
(lp261
S'ENVO:00000086'
p262
aS'ENVO:00000260'
p263
asS'hadalpelagic zone'
p264
(lp265
S'ENVO:00000214'
p266
asS'vegetable oil'
p267
(lp268
S'ENVO:00003975'
p269
aS'ENVO:0010145'
p270
asS'dairy product'
p271
(lp272
S'ENVO:01000011'
p273
asS'equatorial rain forest'
p274
(lp275
S'ENVO:00000109'
p276
asS'divide'
p277
(lp278
S'ENVO:00000292'
p279
ag279
asS'frass'
p280
(lp281
S'ENVO:00002003'
p282
asS'straw'
p283
(lp284
S'ENVO:00003869'
p285
asS'Tropical upwelling biome'
p286
(lp287
S'ENVO:00000897'
p288
asS'non tidal basin'
p289
(lp290
S'ENVO:00000309'
p291
asS'anoxic mud'
p292
(lp293
S'ENVO:00002133'
p294
asS'alpine glacier'
p295
(lp296
S'ENVO:00000085'
p297
asS'marine coral reef deep fore reef'
p298
(lp299
S'ENVO:01000149'
p300
asS'plant food product'
p301
(lp302
S'ENVO:00002216'
p303
asS'Basin'
p304
(lp305
S'ENVO:00000291'
p306
asS'MarineWetland'
p307
(lp308
S'ENVO:00000043'
p309
asS'undersea ravine'
p310
(lp311
S'ENVO:00000267'
p312
asS'independent sovereign nation'
p313
(lp314
g167
asS'mountain range'
p315
(lp316
S'ENVO:00000080'
p317
ag317
asS'distilled fermented beverage'
p318
(lp319
S'ENVO:0010048'
p320
asS'hospital'
p321
(lp322
S'ENVO:00002173'
p323
asS'continental glacier'
p324
(lp325
S'ENVO:00000132'
p326
asS'lava area'
p327
(lp328
S'ENVO:00000095'
p329
ag329
asS'saline wedge estuary'
p330
(lp331
S'ENVO:00000226'
p332
asS'quicksand area'
p333
(lp334
S'ENVO:00000285'
p335
asS'bayou'
p336
(lp337
S'ENVO:00000138'
p338
ag338
aS'ENVO:00000234'
p339
asS'sea-mount'
p340
(lp341
g40
asS'knoll'
p342
(lp343
S'ENVO:00000081'
p344
ag344
aS'ENVO:00000083'
p345
ag59
asS'undersea shoal'
p346
(lp347
g99
asS'man-made feature'
p348
(lp349
S'ENVO:00000002'
p350
asS'goat manure'
p351
(lp352
S'ENVO:02000084'
p353
asS'bench (natural)'
p354
(lp355
S'ENVO:00000508'
p356
asS'PLAIN'
p357
(lp358
g262
asS'acid hot spring'
p359
(lp360
S'ENVO:00002120'
p361
asS'DCM'
p362
(lp363
S'ID:0000092'
p364
asS'holm'
p365
(lp366
S'ENVO:00000098'
p367
asS'fermented fruit product'
p368
(lp369
S'ENVO:00003891'
p370
asS'reservoir bottom'
p371
(lp372
S'ENVO:00000513'
p373
asS'fault cave'
p374
(lp375
S'ENVO:00000071'
p376
asS'rain forest'
p377
(lp378
g276
ag276
asS'fistula'
p379
(lp380
S'ID:0000085'
p381
asS'impact crater'
p382
(lp383
S'ENVO:00000310'
p384
asS'copse'
p385
(lp386
g276
aS'ENVO:00000111'
p387
asS'vetch seed product'
p388
(lp389
S'ENVO:0010115'
p390
asS'oligotrophic water'
p391
(lp392
S'ENVO:00002223'
p393
asS'incubator'
p394
(lp395
S'ID:0000061'
p396
asS'barrier basin'
p397
(lp398
g291
asS'wort'
p399
(lp400
S'ENVO:00003037'
p401
asS'face cream product'
p402
(lp403
S'ENVO:00003894'
p404
asS'Tundra Division - Mountain Provinces (M120)'
p405
(lp406
S'ENVO:00003007'
p407
asS'navigation canal'
p408
(lp409
S'ENVO:00000048'
p410
ag410
ag410
asS'leachate'
p411
(lp412
S'ENVO:00002141'
p413
asS'defile'
p414
(lp415
S'ENVO:00000084'
p416
ag416
aS'ENVO:00000169'
p417
asS'flood fringe'
p418
(lp419
S'ENVO:00000257'
p420
asS'FARM'
p421
(lp422
g112
asS'regosol'
p423
(lp424
S'ENVO:00002256'
p425
asS'black smoker'
p426
(lp427
S'ENVO:00000218'
p428
asS'cured meat'
p429
(lp430
S'ENVO:00003063'
p431
asS'neritic sub-littoral zone'
p432
(lp433
S'ENVO:01000126'
p434
asS'Harzer'
p435
(lp436
S'ENVO:00003058'
p437
asS'mycetome'
p438
(lp439
S'ENVO:01000166'
p440
asS'dyke'
p441
(lp442
S'ENVO:00000178'
p443
asS'Savanna Division - Mountain Provinces (M410)'
p444
(lp445
S'ENVO:00003029'
p446
asS'cut off'
p447
(lp448
S'ENVO:00000523'
p449
asS'marine chemocline'
p450
(lp451
S'ENVO:01000076'
p452
asS'flood control basin'
p453
(lp454
S'ENVO:00000443'
p455
asS'marine algal bloom'
p456
(lp457
S'ENVO:01000057'
p458
asS'tropical rain forest'
p459
(lp460
g276
asS"hen's egg product"
p461
(lp462
S'ENVO:02000057'
p463
asS'lesions'
p464
(lp465
S'ID:0000040'
p466
asS'hydromorphic/phreatic dambo'
p467
(lp468
S'ENVO:00000237'
p469
asS'toxin'
p470
(lp471
S'ID:0000091'
p472
asS'stockyard'
p473
(lp474
g111
asS'nonfat dry milk'
p475
(lp476
S'ENVO:00003907'
p477
asS'beach'
p478
(lp479
S'ENVO:00000091'
p480
ag480
asS'mallee scrub'
p481
(lp482
g276
asS'countries, 2nd order division'
p483
(lp484
S'ENVO:00000006'
p485
asS'hogback'
p486
(lp487
S'ENVO:00000283'
p488
asS'fourth level subdivision'
p489
(lp490
g198
asS'nodules'
p491
(lp492
S'ID:0000004'
p493
asS'abscess'
p494
(lp495
S'ID:0000019'
p496
asS'tidal basin'
p497
(lp498
g291
asS'cryosol'
p499
(lp500
S'ENVO:00002236'
p501
asS'marine terrace'
p502
(lp503
g31
aS'ENVO:00000509'
p504
asS'Ocean'
p505
(lp506
S'ENVO:00000015'
p507
asS'naturally occuring environmental material'
p508
(lp509
S'ENVO:0010161'
p510
asS'deep-sea'
p511
(lp512
S'ID:0000119'
p513
asS'cervid dairy product'
p514
(lp515
S'ENVO:0010031'
p516
asS'undersea peak'
p517
(lp518
S'ENVO:00000104'
p519
asS'desert oasis'
p520
(lp521
S'ENVO:00000156'
p522
asS'marine hydrographic feature'
p523
(lp524
S'ENVO:00000466'
p525
asS'mesa'
p526
(lp527
S'ENVO:00000179'
p528
ag528
asS'faecal sample'
p529
(lp530
g282
asS'gravel pit'
p531
(lp532
S'ENVO:00000473'
p533
asS'permanent spring'
p534
(lp535
S'ENVO:00000205'
p536
asS'marine black smoker biome'
p537
(lp538
S'ENVO:01000051'
p539
asS'SalineLake'
p540
(lp541
S'ENVO:00000019'
p542
asS'equatorial upwelling front'
p543
(lp544
S'ENVO:01000092'
p545
asS'fermented agave beverage'
p546
(lp547
S'ENVO:0010014'
p548
asS'island arc'
p549
(lp550
g367
aS'ENVO:00000220'
p551
aS'ENVO:00000353'
p552
asS'metazoan-associated habitat'
p553
(lp554
S'ENVO:00006776'
p555
asS'invertebrate food product'
p556
(lp557
S'ENVO:0010088'
p558
asS'bean plant'
p559
(lp560
S'ENVO:02000073'
p561
asS'jungle'
p562
(lp563
g276
ag276
asS'LAGOON'
p564
(lp565
S'ENVO:00000038'
p566
asS'subterranean habitat'
p567
(lp568
S'ENVO:00000572'
p569
asS'undersea shelf valley'
p570
(lp571
g519
asS'herbaceous area'
p572
(lp573
g226
asS'wine'
p574
(lp575
S'ENVO:01000014'
p576
asS'range of seamounts'
p577
(lp578
S'ENVO:00000550'
p579
asS'marine abyssal zone biome'
p580
(lp581
S'ENVO:01000027'
p582
asS'citrus fruit product'
p583
(lp584
S'ENVO:0010063'
p585
asS'pothole'
p586
(lp587
S'ENVO:00000534'
p588
asS'raised beach'
p589
(lp590
S'ENVO:00000415'
p591
asS'drumlin'
p592
(lp593
S'ENVO:00000276'
p594
asS'radionuclide contaminated soil'
p595
(lp596
S'ENVO:00002154'
p597
asS'non-fermented plant derived beverage'
p598
(lp599
S'ENVO:0010171'
p600
asS'barrier island'
p601
(lp602
g367
ag99
asS'sludge'
p603
(lp604
S'ENVO:00002044'
p605
asS'milk formula'
p606
(lp607
S'ENVO:00002187'
p608
asS'fermented beverage'
p609
(lp610
S'ENVO:0010005'
p611
asS'midden'
p612
(lp613
S'ENVO:00010442'
p614
asS'pack ice'
p615
(lp616
g326
asS'grassland soil'
p617
(lp618
S'ENVO:00005750'
p619
asS'hydrothermal fluid'
p620
(lp621
S'ENVO:01000134'
p622
asS'animal-associated habitat'
p623
(lp624
g555
asS'plantation'
p625
(lp626
S'ENVO:00000117'
p627
asS'currency note'
p628
(lp629
S'ENVO:00003896'
p630
asS'lakeshore'
p631
(lp632
S'ENVO:00000382'
p633
asS'coffee'
p634
(lp635
S'ENVO:0010157'
p636
asS'chlorine removal'
p637
(lp638
S'ID:0000073'
p639
asS'downs'
p640
(lp641
g226
asS'sea lough'
p642
(lp643
S'ENVO:00000032'
p644
asS'break'
p645
(lp646
g276
asS'transportation feature'
p647
(lp648
S'ENVO:00000411'
p649
asS'undersea furrow'
p650
(lp651
g519
asS'mangrove swamp'
p652
(lp653
S'ENVO:00000057'
p654
ag654
asS'man-made'
p655
(lp656
S'ID:0000068'
p657
asS'volcanic feature'
p658
(lp659
S'ENVO:00000094'
p660
asS'bank'
p661
(lp662
S'ENVO:00000141'
p663
ag99
asS'bread'
p664
(lp665
S'ENVO:0010095'
p666
asS'caprine milk'
p667
(lp668
S'ENVO:00003070'
p669
asS'aquacultural site'
p670
(lp671
S'ENVO:00000294'
p672
asS'citrus fruit extract'
p673
(lp674
S'ENVO:0010073'
p675
asS'cerrito'
p676
(lp677
g59
asS'embankment'
p678
(lp679
g443
asS'volcano'
p680
(lp681
S'ENVO:00000247'
p682
ag682
asS'Tundra Divsion (120)'
p683
(lp684
S'ENVO:00003004'
p685
asS'downland'
p686
(lp687
g226
asS'continental divide'
p688
(lp689
S'ENVO:00000293'
p690
asS'side'
p691
(lp692
S'ENVO:00002000'
p693
asS'bone'
p694
(lp695
S'ENVO:00002039'
p696
aS'ID:0000103'
p697
asS'allotment garden soil'
p698
(lp699
S'ENVO:00005744'
p700
asS'Microbialithe'
p701
(lp702
S'ID:0000107'
p703
asS'bacteria enriched soil'
p704
(lp705
S'ENVO:00005757'
p706
asS'catch basin'
p707
(lp708
S'ENVO:00000020'
p709
asS'pelagic isothermal surface'
p710
(lp711
S'ENVO:01000080'
p712
asS'fishpond'
p713
(lp714
S'ENVO:00000056'
p715
asS'marine wind mixed layer'
p716
(lp717
S'ENVO:01000061'
p718
asS'military training area'
p719
(lp720
S'ENVO:00000561'
p721
asS'Tropical/Subtropical Desert Division (320)'
p722
(lp723
S'ENVO:00003019'
p724
asS'natural tunnel'
p725
(lp726
S'ENVO:00000068'
p727
ag727
asS'water gap'
p728
(lp729
g204
ag207
asS'sandy sediment'
p730
(lp731
S'ENVO:01000118'
p732
asS'DESERT'
p733
(lp734
S'ENVO:00000097'
p735
asS'lake sediment'
p736
(lp737
S'ENVO:00000546'
p738
asS'thermophilic sediment'
p739
(lp740
S'ENVO:01000132'
p741
asS'oceanic mesopelagic zone biome'
p742
(lp743
S'ENVO:01000036'
p744
asS'goe'
p745
(lp746
g207
asS'saline lake sediment'
p747
(lp748
S'ENVO:00002209'
p749
asS'nut oil'
p750
(lp751
S'ENVO:0010146'
p752
asS'branch'
p753
(lp754
g204
asS'agricultural drain'
p755
(lp756
S'ENVO:00000037'
p757
asS'inhabited region'
p758
(lp759
S'ENVO:00000062'
p760
asS'underground water body'
p761
(lp762
S'ENVO:00000061'
p763
asS'Tropical and subtropical dry broadleaf forest biome'
p764
(lp765
S'ENVO:00000880'
p766
asS'grain of desert sand'
p767
(lp768
S'ENVO:00000344'
p769
asS'strath'
p770
(lp771
g207
asS'carcass'
p772
(lp773
S'ENVO:00002033'
p774
asS'strata'
p775
(lp776
S'ID:0000076'
p777
asS'alimentary canal'
p778
(lp779
S'ID:0000002'
p780
ag780
asS'river island'
p781
(lp782
S'ENVO:00000423'
p783
asS'beech forest soil'
p784
(lp785
S'ENVO:00005770'
p786
asS'histosol'
p787
(lp788
S'ENVO:00002243'
p789
asS'toxic compound'
p790
(lp791
g472
asS'hand'
p792
(lp793
S'ID:0000023'
p794
asS'morass'
p795
(lp796
g309
aS'ENVO:00000044'
p797
asS'stalagmite'
p798
(lp799
S'ENVO:00000330'
p800
asS'marine salt marsh biome'
p801
(lp802
S'ENVO:01000022'
p803
asS'vitreous humour'
p804
(lp805
S'ENVO:02000032'
p806
asS'Subtropical Division (230)'
p807
(lp808
S'ENVO:00003009'
p809
asS'ice cap dome'
p810
(lp811
S'ENVO:00000342'
p812
asS'rhizoplane'
p813
(lp814
S'ENVO:00005801'
p815
asS'marine Taylor column'
p816
(lp817
S'ENVO:01000072'
p818
asS'undersea range'
p819
(lp820
g579
asS'covered reservoir'
p821
(lp822
S'ENVO:00000025'
p823
asS'equine milk'
p824
(lp825
S'ENVO:0010033'
p826
asS'malt vinegar'
p827
(lp828
S'ENVO:00003906'
p829
asS'massif'
p830
(lp831
S'ENVO:00000381'
p832
asS'hook'
p833
(lp834
g99
aS'ENVO:00000305'
p835
asS'compost soil'
p836
(lp837
S'ENVO:00005747'
p838
asS'cryptoendolith'
p839
(lp840
S'ENVO:00001995'
p841
asS'doline'
p842
(lp843
S'ENVO:00000332'
p844
asS'chutes (hydrographic)'
p845
(lp846
S'ENVO:00000395'
p847
asS'ditch'
p848
(lp849
g757
ag757
ag757
asS'uranium mine'
p850
(lp851
S'ID:0000132'
p852
asS'Temperate coniferous forest biome'
p853
(lp854
S'ENVO:00000875'
p855
asS'borderland'
p856
(lp857
S'ENVO:00000223'
p858
asS'natural harbour'
p859
(lp860
S'ENVO:00000465'
p861
asS'pinnacle (natural formation)'
p862
(lp863
S'ENVO:00000481'
p864
asS'fresh sausage'
p865
(lp866
S'ENVO:0010134'
p867
asS'salt water'
p868
(lp869
S'ENVO:00002010'
p870
asS'tape kefan'
p871
(lp872
S'ENVO:00003929'
p873
asS'marginal sea'
p874
(lp875
g65
asS'deep ocean'
p876
(lp877
g513
asS'hypersaline'
p878
(lp879
S'ID:0000111'
p880
asS'fork (hydrographic'
p881
(lp882
g203
asS'natural bridge'
p883
(lp884
g47
asS'hydrothermal vent'
p885
(lp886
S'ENVO:00000215'
p887
asS'Polynya'
p888
(lp889
S'ENVO:00000484'
p890
asS'barrier reef'
p891
(lp892
S'ENVO:00000130'
p893
ag893
aS'ENVO:00000150'
p894
asS'countries, 4th order division'
p895
(lp896
g198
asS'hanging valley'
p897
(lp898
S'ENVO:00000184'
p899
ag899
asS'intestine'
p900
(lp901
g780
asS'compound volcano'
p902
(lp903
S'ENVO:00000371'
p904
asS'palsa'
p905
(lp906
S'ENVO:00000489'
p907
asS'revetment'
p908
(lp909
g443
asS'high tide zone'
p910
(lp911
S'ENVO:00000318'
p912
asS'pulse'
p913
(lp914
S'ENVO:0010080'
p915
asS'interdigital web space'
p916
(lp917
g794
asS'intermittent saline lake'
p918
(lp919
S'ENVO:00000502'
p920
asS'ovine cheese product'
p921
(lp922
S'ENVO:0010037'
p923
asS'fish egg product'
p924
(lp925
S'ENVO:0010166'
p926
asS'braided stream'
p927
(lp928
g203
asS'fresh water aquarium'
p929
(lp930
S'ENVO:00002198'
p931
asS'sea channel'
p932
(lp933
g847
ag847
asS'amaranthaceous inflorescence food product'
p934
(lp935
S'ENVO:0010091'
p936
asS'undersea volcano'
p937
(lp938
g40
asS'coconut grove'
p939
(lp940
S'ENVO:00000118'
p941
ag941
asS'undersea median valley'
p942
(lp943
g519
asS'agricultural environmental material'
p944
(lp945
S'ENVO:0010003'
p946
asS'volcanic field'
p947
(lp948
S'ENVO:00000354'
p949
asS'WWTP'
p950
(lp951
S'ENVO:00002272'
p952
asS'fece'
p953
(lp954
g282
asS'undersea fork'
p955
(lp956
g519
asS'Sea'
p957
(lp958
g65
asS'winged bean product'
p959
(lp960
S'ENVO:0010114'
p961
asS'bridge'
p962
(lp963
g19
ag19
asS'seep'
p964
(lp965
S'ENVO:00000027'
p966
asS'shoals'
p967
(lp968
g99
asS'mine'
p969
(lp970
g81
aS'ENVO:00000076'
p971
aS'ENVO:00000284'
p972
asS'Dry Domain (300)'
p973
(lp974
S'ENVO:00003002'
p975
asS'karst area'
p976
(lp977
S'ENVO:00000175'
p978
ag978
asS'headland'
p979
(lp980
g835
ag835
ag835
ag835
asS'limestone pavement'
p981
(lp982
S'ENVO:00000422'
p983
asS'saltern'
p984
(lp985
g542
aS'ENVO:00000055'
p986
asS'dead zone'
p987
(lp988
S'ENVO:01000066'
p989
asS'abandoned watercourse'
p990
(lp991
S'ENVO:00000524'
p992
ag992
asS'undersea channel'
p993
(lp994
g847
asS'truck garden'
p995
(lp996
S'ENVO:00000113'
p997
asS'atoll reef'
p998
(lp999
g893
asS'oceanic gyre'
p1000
(lp1001
S'ENVO:01000074'
p1002
asS'feces'
p1003
(lp1004
g282
asS'cleft'
p1005
(lp1006
S'ENVO:00000320'
p1007
ag1007
aS'ENVO:00000526'
p1008
ag1008
asS'first stomach'
p1009
(lp1010
g177
asS'biogas reactor'
p1011
(lp1012
S'ID:0000113'
p1013
asS'tunnels'
p1014
(lp1015
S'ENVO:00000066'
p1016
asS'fish product'
p1017
(lp1018
S'ENVO:0010164'
p1019
asS'vitreous humor'
p1020
(lp1021
g806
asS'blood plasma'
p1022
(lp1023
S'ENVO:02000027'
p1024
asS'marine white smoker biome'
p1025
(lp1026
S'ENVO:01000052'
p1027
asS'beverage product'
p1028
(lp1029
S'ENVO:0010004'
p1030
asS'wells'
p1031
(lp1032
S'ENVO:00000026'
p1033
asS'end moraine'
p1034
(lp1035
S'ENVO:00000252'
p1036
asS'Limburger'
p1037
(lp1038
S'ENVO:0010040'
p1039
asS'uranium mill tailing'
p1040
(lp1041
g852
asS'pomaceous fruit extract'
p1042
(lp1043
S'ENVO:0010072'
p1044
asS'fermented millet food product'
p1045
(lp1046
S'ENVO:00003882'
p1047
asS'mouth'
p1048
(lp1049
S'ENVO:00000479'
p1050
aS'ID:0000020'
p1051
asS'plant root food product'
p1052
(lp1053
S'ENVO:0010059'
p1054
asS'letter'
p1055
(lp1056
S'ENVO:02000081'
p1057
asS'Area of Special Scientific Interest'
p1058
(lp1059
S'ENVO:00000361'
p1060
asS'estuarine biome'
p1061
(lp1062
S'ENVO:01000020'
p1063
asS'mammalia-associated habitat'
p1064
(lp1065
S'ENVO:00009002'
p1066
asS'underground river'
p1067
(lp1068
S'ENVO:00000059'
p1069
asS'toxic molecule'
p1070
(lp1071
g472
asS'physiographic feature'
p1072
(lp1073
S'ENVO:00000191'
p1074
aS'ENVO:00000194'
p1075
aS'ENVO:00000286'
p1076
aS'ENVO:00000510'
p1077
aS'ENVO:00000520'
p1078
aS'ENVO:00000521'
p1079
asS'rock shelter'
p1080
(lp1081
S'ENVO:00000440'
p1082
asS'coomb'
p1083
(lp1084
g152
asS'canyon delta'
p1085
(lp1086
S'ENVO:00000101'
p1087
asS'tissue culture'
p1088
(lp1089
S'ENVO:02000007'
p1090
asS'beer wort'
p1091
(lp1092
S'ENVO:00003038'
p1093
asS'freeway'
p1094
(lp1095
g16
asS'sandur'
p1096
(lp1097
S'ENVO:00000312'
p1098
asS'alas'
p1099
(lp1100
S'ENVO:00000438'
p1101
asS'marine sludge'
p1102
(lp1103
S'ENVO:00005796'
p1104
asS'Tropical/Subtropical Steppe Division - Mountain Provinces (M310)'
p1105
(lp1106
S'ENVO:00003025'
p1107
asS'irrigation canal'
p1108
(lp1109
S'ENVO:00000036'
p1110
ag1110
ag1110
asS'ISTHMUS'
p1111
(lp1112
S'ENVO:00000174'
p1113
asS'dried milk product'
p1114
(lp1115
S'ENVO:00003980'
p1116
asS'Ridge'
p1117
(lp1118
g488
asS'ditch water'
p1119
(lp1120
S'ENVO:00002158'
p1121
asS'droppings'
p1122
(lp1123
g282
asS'determinate root nodule'
p1124
(lp1125
S'ENVO:01000167'
p1126
asS'quinate enriched soil'
p1127
(lp1128
S'ENVO:00003095'
p1129
asS'lavaka'
p1130
(lp1131
g207
asS'black earth'
p1132
(lp1133
S'ENVO:00002237'
p1134
asS'fjord lake'
p1135
(lp1136
S'ENVO:00000201'
p1137
asS'coastal wetland'
p1138
(lp1139
S'ENVO:00000230'
p1140
asS'sand lobe'
p1141
(lp1142
g99
asS'geyser'
p1143
(lp1144
S'ENVO:00000050'
p1145
ag1145
asS'till plan'
p1146
(lp1147
S'ENVO:00000254'
p1148
asS'amasake'
p1149
(lp1150
S'ENVO:00003872'
p1151
asS'artificial lake'
p1152
(lp1153
S'ENVO:00000377'
p1154
asS'sugar'
p1155
(lp1156
S'ENVO:00003970'
p1157
asS'bush'
p1158
(lp1159
g276
ag129
ag129
asS'spring (hydrographic)'
p1160
(lp1161
S'ENVO:00000125'
p1162
aS'ENVO:00000126'
p1163
asS'irrigation reservoir'
p1164
(lp1165
S'ENVO:00000450'
p1166
asS'fossil'
p1167
(lp1168
S'ENVO:00002164'
p1169
asS'ice clearing'
p1170
(lp1171
g890
asS'thermophilic granular sludge'
p1172
(lp1173
S'ENVO:00002212'
p1174
asS'rubber plantation soil'
p1175
(lp1176
S'ENVO:00005788'
p1177
asS'Xeric basin biome'
p1178
(lp1179
S'ENVO:00000893'
p1180
asS'nuclear power plant'
p1181
(lp1182
S'ENVO:00002271'
p1183
asS'coast'
p1184
(lp1185
S'ENVO:00000090'
p1186
aS'ENVO:00000303'
p1187
ag1187
asS'watermelon'
p1188
(lp1189
S'ENVO:0010067'
p1190
asS'continental rise'
p1191
(lp1192
S'ENVO:00000274'
p1193
ag1193
asS'reforested area'
p1194
(lp1195
g276
asS'ornithogenic soil'
p1196
(lp1197
S'ENVO:00005782'
p1198
asS'bar'
p1199
(lp1200
g99
ag99
ag335
aS'ENVO:00000306'
p1201
aS'ENVO:00000420'
p1202
asS'milet product'
p1203
(lp1204
S'ENVO:0010100'
p1205
asS'flour'
p1206
(lp1207
S'ENVO:00003876'
p1208
asS'bank reef'
p1209
(lp1210
g893
asS'industrial waste'
p1211
(lp1212
S'ENVO:00002267'
p1213
asS'donkey milk'
p1214
(lp1215
S'ENVO:02000013'
p1216
asS'hummock'
p1217
(lp1218
g367
ag59
ag59
aS'ENVO:00000516'
p1219
asS'shott'
p1220
(lp1221
S'ENVO:00000271'
p1222
asS'Piburger See'
p1223
(lp1224
S'ID:0000102'
p1225
asS'chaparal'
p1226
(lp1227
S'ENVO:00000301'
p1228
asS'cooked sausage'
p1229
(lp1230
S'ENVO:0010136'
p1231
asS'icecap depression'
p1232
(lp1233
S'ENVO:00000531'
p1234
ag1234
asS'demilitiarized zone'
p1235
(lp1236
S'ENVO:00000136'
p1237
asS'L-(+)-tartrate enriched soil'
p1238
(lp1239
S'ENVO:00003094'
p1240
asS'sand hom'
p1241
(lp1242
g99
asS'rivulet'
p1243
(lp1244
g203
ag204
asS'arenosol'
p1245
(lp1246
S'ENVO:00002229'
p1247
asS'Bresse Blue'
p1248
(lp1249
S'ENVO:00003046'
p1250
asS'DMZ'
p1251
(lp1252
g1237
asS'sound (bodies of water)'
p1253
(lp1254
g847
asS'raised mire'
p1255
(lp1256
S'ENVO:00000185'
p1257
asS'epithelium'
p1258
(lp1259
S'ID:0000031'
p1260
asS'cattle dipping tank'
p1261
(lp1262
g111
asS'causeway'
p1263
(lp1264
g16
aS'ENVO:00000158'
p1265
ag1265
asS'algal food product'
p1266
(lp1267
S'ENVO:0010096'
p1268
asS'mud'
p1269
(lp1270
S'ENVO:01000001'
p1271
asS'Mediterranean Division - Mountain Provinces (M260)'
p1272
(lp1273
S'ENVO:00003018'
p1274
asS'sample from HOT station ALOHA'
p1275
(lp1276
S'ID:0000123'
p1277
aS'ID:0000124'
p1278
asS'nitisol'
p1279
(lp1280
S'ENVO:00002247'
p1281
asS'yogurt'
p1282
(lp1283
g236
asS'pampa'
p1284
(lp1285
g263
aS'ENVO:00000262'
p1286
asS'confluent stream'
p1287
(lp1288
S'ENVO:00000495'
p1289
asS'ICEBERG'
p1290
(lp1291
S'ENVO:00000298'
p1292
asS'tissue fluid'
p1293
(lp1294
S'ENVO:02000042'
p1295
asS'LandIce'
p1296
(lp1297
g87
asS'boulder sediment'
p1298
(lp1299
S'ENVO:01000114'
p1300
asS'marine water body'
p1301
(lp1302
S'ENVO:00001999'
p1303
asS'zebra dairy product'
p1304
(lp1305
S'ENVO:0010026'
p1306
asS'cold surface current'
p1307
(lp1308
S'ENVO:01000102'
p1309
asS'bottled beer'
p1310
(lp1311
S'ENVO:00003886'
p1312
asS'fermented sugar cane beverage'
p1313
(lp1314
S'ENVO:0010008'
p1315
asS'motte'
p1316
(lp1317
g276
asS'unexploded-ordnance dump'
p1318
(lp1319
S'ENVO:00002205'
p1320
asS'nunatak'
p1321
(lp1322
S'ENVO:00000181'
p1323
ag1323
aS'ENVO:00000480'
p1324
asS'intertidal sediment'
p1325
(lp1326
S'ENVO:00002179'
p1327
asS'PLATEAU'
p1328
(lp1329
S'ENVO:00000182'
p1330
asS'body of water'
p1331
(lp1332
S'ENVO:00000063'
p1333
ag1333
asS'omz'
p1334
(lp1335
S'ENVO:01000065'
p1336
asS'open sea'
p1337
(lp1338
g65
asS'burnt soil'
p1339
(lp1340
S'ENVO:00005760'
p1341
asS'gravel field'
p1342
(lp1343
S'ENVO:00000548'
p1344
asS'oil contaminated'
p1345
(lp1346
S'ID:0000122'
p1347
asS'country'
p1348
(lp1349
g167
asS'WOODLAND'
p1350
(lp1351
g276
asS'ocean region'
p1352
(lp1353
g507
asS'beach sand'
p1354
(lp1355
S'ENVO:00002138'
p1356
asS'saltmarsh'
p1357
(lp1358
S'ID:0000035'
p1359
asS'dcm degrading envrionment'
p1360
(lp1361
S'ID:0000080'
p1362
asS'hay meadow'
p1363
(lp1364
S'ENVO:00000108'
p1365
asS'col'
p1366
(lp1367
g416
ag416
asS'cave floor'
p1368
(lp1369
S'ENVO:01000019'
p1370
asS'sound (body of water)'
p1371
(lp1372
S'ENVO:00000393'
p1373
asS'cobble'
p1374
(lp1375
S'ENVO:00002140'
p1376
asS"cow's milk"
p1377
(lp1378
S'ENVO:0010035'
p1379
asS'linseed oil'
p1380
(lp1381
S'ENVO:00003976'
p1382
asS'bee food product'
p1383
(lp1384
S'ENVO:0010130'
p1385
asS'canyon'
p1386
(lp1387
g417
ag312
asS'PalustrineWetland'
p1388
(lp1389
g309
asS'path'
p1390
(lp1391
S'ENVO:00000122'
p1392
asS'backarc basin'
p1393
(lp1394
S'ENVO:00002277'
p1395
asS'abdominal'
p1396
(lp1397
g780
asS'beef'
p1398
(lp1399
S'ENVO:00003067'
p1400
asS'endolith'
p1401
(lp1402
g841
asS'insect food product'
p1403
(lp1404
S'ENVO:0010089'
p1405
asS'extraterrestrial habitat'
p1406
(lp1407
S'ENVO:00002029'
p1408
asS'beer'
p1409
(lp1410
S'ENVO:01000015'
p1411
asS'foredeep'
p1412
(lp1413
S'ENVO:00000499'
p1414
asS'baked food product'
p1415
(lp1416
S'ENVO:0010125'
p1417
asS'basin'
p1418
(lp1419
S'ENVO:00000151'
p1420
aS'ENVO:00000165'
p1421
aS'ENVO:00000195'
p1422
ag291
ag291
aS'ENVO:00000311'
p1423
ag1395
asS'wadi bend'
p1424
(lp1425
g233
ag233
asS'stream distributary'
p1426
(lp1427
g118
asS'cowpea product'
p1428
(lp1429
S'ENVO:0010112'
p1430
asS'unpasteurized caprine milk'
p1431
(lp1432
S'ENVO:02000088'
p1433
asS'dichloromethane'
p1434
(lp1435
g364
asS'spit'
p1436
(lp1437
g1201
ag1201
aS'ID:0000021'
p1438
asS'tablemounts'
p1439
(lp1440
S'ENVO:00000265'
p1441
asS'stream bottom'
p1442
(lp1443
S'ENVO:00000383'
p1444
asS'catchment'
p1445
(lp1446
g306
ag306
asS'bioleaching heap'
p1447
(lp1448
S'ID:0000016'
p1449
asS'ICE FIELD'
p1450
(lp1451
g326
asS'Rhizobacteria'
p1452
(lp1453
g815
asS'marine oligotrophic desert'
p1454
(lp1455
S'ENVO:01000073'
p1456
asS'lost river'
p1457
(lp1458
S'ENVO:00000517'
p1459
ag1459
ag1459
asS'volcanic island'
p1460
(lp1461
S'ENVO:00000222'
p1462
asS'VALLEY'
p1463
(lp1464
g207
asS'ait'
p1465
(lp1466
g783
asS'salt pond'
p1467
(lp1468
g986
ag986
asS'air'
p1469
(lp1470
S'ENVO:00002005'
p1471
asS'threonine enriched soil'
p1472
(lp1473
S'ENVO:00003091'
p1474
asS'tablemount'
p1475
(lp1476
g1330
ag1441
asS'paper product'
p1477
(lp1478
S'ENVO:00003895'
p1479
asS'watercourse'
p1480
(lp1481
S'ENVO:00000014'
p1482
ag203
ag203
ag204
ag204
ag233
ag757
ag118
aS'ENVO:00000079'
p1483
aS'ENVO:00000152'
p1484
ag339
aS'ENVO:00000384'
p1485
ag1373
aS'ENVO:00000394'
p1486
ag847
aS'ENVO:00000427'
p1487
aS'ENVO:00000493'
p1488
ag1289
asS'dune soil'
p1489
(lp1490
S'ENVO:00002260'
p1491
asS'property'
p1492
(lp1493
S'ID:0000043'
p1494
asS'retention basin'
p1495
(lp1496
g455
asS'savanna'
p1497
(lp1498
S'ENVO:00000261'
p1499
asS'valley glacier'
p1500
(lp1501
S'ENVO:00000458'
p1502
asS'earth crust'
p1503
(lp1504
g192
asS'nature reserve'
p1505
(lp1506
S'ENVO:00000363'
p1507
asS'lake surface'
p1508
(lp1509
S'ENVO:00000105'
p1510
asS'cone'
p1511
(lp1512
g239
ag239
asS'seamount group'
p1513
(lp1514
g579
asS'surface water'
p1515
(lp1516
S'ENVO:00002042'
p1517
asS'rolling wastewater'
p1518
(lp1519
S'ENVO:00002001'
p1520
asS'unpasteurized sheep milk cheese'
p1521
(lp1522
S'ENVO:02000085'
p1523
asS'vivarium'
p1524
(lp1525
S'ENVO:00010622'
p1526
asS'cultured habitat'
p1527
(lp1528
S'ENVO:02000006'
p1529
asS'poultry product'
p1530
(lp1531
S'ENVO:02000068'
p1532
asS'swale'
p1533
(lp1534
g1414
aS'ENVO:00000543'
p1535
asS'UASB granule'
p1536
(lp1537
S'ID:0000137'
p1538
asS'airport'
p1539
(lp1540
S'ID:0000069'
p1541
asS'endorheic basin'
p1542
(lp1543
S'ENVO:00000551'
p1544
asS'thermophilic anaerobic methanogenic reactor'
p1545
(lp1546
S'ENVO:00002211'
p1547
asS'glacial valley'
p1548
(lp1549
S'ENVO:00000248'
p1550
asS'karst'
p1551
(lp1552
g978
ag978
asS'diversionary dam'
p1553
(lp1554
S'ENVO:00000558'
p1555
asS'poultry deep litter'
p1556
(lp1557
S'ENVO:00003908'
p1558
asS'peaks'
p1559
(lp1560
g1324
asS'Mixed mountain and highland systems with complex zonation'
p1561
(lp1562
S'ENVO:00002996'
p1563
asS'undersea hill'
p1564
(lp1565
g40
asS'waterfall'
p1566
(lp1567
g121
asS'strand crack'
p1568
(lp1569
S'ENVO:00009726'
p1570
asS'sulfur spring'
p1571
(lp1572
g1163
asS'fish hatchery'
p1573
(lp1574
S'ENVO:00000295'
p1575
asS'butter'
p1576
(lp1577
S'ENVO:00003047'
p1578
asS'reindeer rumen'
p1579
(lp1580
g177
asS'Subarctic Division (130)'
p1581
(lp1582
S'ENVO:00003006'
p1583
asS'GEYSER'
p1584
(lp1585
g1145
asS'cake icing'
p1586
(lp1587
S'ENVO:02000064'
p1588
asS'ocean'
p1589
(lp1590
g507
ag507
asS'sea bed'
p1591
(lp1592
S'ENVO:00000482'
p1593
asS'kiwifruit'
p1594
(lp1595
S'ID:0000117'
p1596
asS'subjacent karst'
p1597
(lp1598
S'ENVO:00000333'
p1599
asS'cataract'
p1600
(lp1601
S'ENVO:00000034'
p1602
ag121
ag121
asS'calanque'
p1603
(lp1604
S'ENVO:00000567'
p1605
asS'regional clearing'
p1606
(lp1607
g890
asS'biogenous sediment'
p1608
(lp1609
S'ENVO:01000082'
p1610
asS'national forest'
p1611
(lp1612
g387
aS'ENVO:00000360'
p1613
asS'kastanozem'
p1614
(lp1615
S'ENVO:00002240'
p1616
asS'ceja'
p1617
(lp1618
S'ENVO:00000087'
p1619
asS'island ice'
p1620
(lp1621
g326
asS'yak milk'
p1622
(lp1623
S'ENVO:02000017'
p1624
asS'precipice'
p1625
(lp1626
g1619
asS'marine oxygen minimum zone'
p1627
(lp1628
g1336
asS'obsequent stream'
p1629
(lp1630
g1488
asS'biome'
p1631
(lp1632
S'ENVO:00000428'
p1633
asS'undersea ridge'
p1634
(lp1635
S'ENVO:00000406'
p1636
asS'hills'
p1637
(lp1638
g345
asS'clam product'
p1639
(lp1640
S'ENVO:02000078'
p1641
asS'Tropical coral biome'
p1642
(lp1643
S'ENVO:00000898'
p1644
asS'ovine dairy product'
p1645
(lp1646
S'ENVO:0010024'
p1647
asS'stent'
p1648
(lp1649
S'ID:0000096'
p1650
asS'quaking bog'
p1651
(lp1652
g309
asS'hay'
p1653
(lp1654
S'ENVO:00002869'
p1655
asS'undersea fan'
p1656
(lp1657
g519
asS'road tunnel'
p1658
(lp1659
g1016
ag1016
asS'unpasteurized orange juice'
p1660
(lp1661
S'ENVO:02000061'
p1662
asS'fish farm'
p1663
(lp1664
g672
asS'gelisol'
p1665
(lp1666
g501
asS'elevation'
p1667
(lp1668
S'ENVO:00000176'
p1669
asS'CREVASSE'
p1670
(lp1671
g1007
asS'oil field produced water'
p1672
(lp1673
S'ENVO:00002194'
p1674
asS'zooplankton'
p1675
(lp1676
S'ID:0000065'
p1677
asS'halloumi'
p1678
(lp1679
S'ENVO:00003054'
p1680
asS'quicksand'
p1681
(lp1682
g335
ag335
asS'cape'
p1683
(lp1684
g835
ag835
ag835
asS'metal contaminated soil'
p1685
(lp1686
S'ENVO:00003081'
p1687
asS'sea mount'
p1688
(lp1689
g40
asS'silty sediment'
p1690
(lp1691
S'ENVO:01000119'
p1692
asS'icecap'
p1693
(lp1694
S'ENVO:00000145'
p1695
ag1695
aS'ENVO:00000299'
p1696
asS'contaminated sludge'
p1697
(lp1698
S'ENVO:00002176'
p1699
asS'dune slack'
p1700
(lp1701
g75
asS'marine bathyal zone biome'
p1702
(lp1703
S'ENVO:01000026'
p1704
asS'acidic hot spring'
p1705
(lp1706
g361
asS'groundwater'
p1707
(lp1708
g763
asS'QUICKSAND'
p1709
(lp1710
g335
asS'gold mine'
p1711
(lp1712
S'ENVO:00002168'
p1713
asS'equatorial forest'
p1714
(lp1715
g276
asS'pillar'
p1716
(lp1717
g864
asS'sea channels'
p1718
(lp1719
g847
asS'creek'
p1720
(lp1721
g203
ag203
ag203
asS'natural rock formation'
p1722
(lp1723
g864
asS'asphalt lake'
p1724
(lp1725
g1421
ag1421
asS'bathypelagic zone'
p1726
(lp1727
S'ENVO:00000211'
p1728
asS'seaknoll'
p1729
(lp1730
g40
asS'rill'
p1731
(lp1732
g204
aS'ENVO:00000496'
p1733
asS'rock glacier'
p1734
(lp1735
g326
aS'ENVO:00000133'
p1736
asS'fermented cereal beverage'
p1737
(lp1738
S'ENVO:0010013'
p1739
asS'heat stressed soil'
p1740
(lp1741
S'ENVO:00005781'
p1742
asS'storage basin'
p1743
(lp1744
g455
asS'poultry litter'
p1745
(lp1746
S'ENVO:00002192'
p1747
asS'drowned valley'
p1748
(lp1749
S'ENVO:00000418'
p1750
asS'independent political entity'
p1751
(lp1752
g167
asS'river receiving production wastewater'
p1753
(lp1754
S'ID:0000126'
p1755
asS'oil tank'
p1756
(lp1757
S'ENVO:00002183'
p1758
asS'sake brewery'
p1759
(lp1760
S'ENVO:00003911'
p1761
asS'arable soil'
p1762
(lp1763
S'ENVO:00005742'
p1764
asS'Hot Continental Division - Mountain Provinces (M220)'
p1765
(lp1766
S'ENVO:00003013'
p1767
asS'cerro'
p1768
(lp1769
g344
ag345
ag59
ag59
asS'oceanic abyssopelagic zone biome'
p1770
(lp1771
S'ENVO:01000038'
p1772
asS'cerebrospinal fluid'
p1773
(lp1774
S'ENVO:02000029'
p1775
asS'saline water'
p1776
(lp1777
g870
asS'organic waste'
p1778
(lp1779
S'ENVO:00002873'
p1780
asS'fresh animal manure'
p1781
(lp1782
S'ENVO:00003032'
p1783
asS'burn'
p1784
(lp1785
S'ENVO:00000444'
p1786
asS'interfluve'
p1787
(lp1788
g262
aS'ENVO:00000527'
p1789
ag1789
asS'third-order administrative division'
p1790
(lp1791
S'ENVO:00000007'
p1792
asS'ice field'
p1793
(lp1794
g326
ag1736
ag1695
ag1696
asS'bank (hydrographic)'
p1795
(lp1796
S'ENVO:00000142'
p1797
ag99
asS'palm grove'
p1798
(lp1799
S'ENVO:00000120'
p1800
asS'eye'
p1801
(lp1802
S'ID:0000067'
p1803
asS'stromatoliths'
p1804
(lp1805
g703
asS'gravel field area'
p1806
(lp1807
g1344
asS'dambo'
p1808
(lp1809
S'ENVO:00000236'
p1810
asS'alkaline flat'
p1811
(lp1812
S'ENVO:00000196'
p1813
asS'coral mucus'
p1814
(lp1815
g894
asS'uranium mill tailings'
p1816
(lp1817
g852
asS'millet beer'
p1818
(lp1819
S'ENVO:00003883'
p1820
asS'palisade'
p1821
(lp1822
g1619
asS'radioactive elements'
p1823
(lp1824
S'ID:0000128'
p1825
asS'point (physiographic)'
p1826
(lp1827
g835
asS'acid mine drainage'
p1828
(lp1829
S'ENVO:00001997'
p1830
asS'islands'
p1831
(lp1832
g367
asS'humus-rich acidic ash soil'
p1833
(lp1834
S'ENVO:00005763'
p1835
asS'permafrost'
p1836
(lp1837
S'ENVO:00000134'
p1838
asS'fomite'
p1839
(lp1840
S'ENVO:00010358'
p1841
asS'medical procedure'
p1842
(lp1843
S'ID:0000051'
p1844
asS'Pecorino cheese'
p1845
(lp1846
S'ENVO:02000083'
p1847
asS'intermittent saline evaporation pond'
p1848
(lp1849
S'ENVO:00000532'
p1850
asS'marine hydrothermal vent biome'
p1851
(lp1852
S'ENVO:01000030'
p1853
asS'cauldron'
p1854
(lp1855
g291
asS'down'
p1856
(lp1857
g226
asS'artificial harbor'
p1858
(lp1859
g44
asS'brown sugar'
p1860
(lp1861
S'ENVO:00003971'
p1862
asS'closed bay'
p1863
(lp1864
S'ENVO:00000475'
p1865
asS'ahu'
p1866
(lp1867
g1324
asS'spores'
p1868
(lp1869
S'ID:0000011'
p1870
asS'bedding-plane cave'
p1871
(lp1872
S'ENVO:00000001'
p1873
asS'anerobic condition'
p1874
(lp1875
S'ID:0000047'
p1876
asS'escarpment'
p1877
(lp1878
S'ENVO:00000280'
p1879
ag1879
asS'root nodule'
p1880
(lp1881
S'ENVO:01000164'
p1882
asS'coffee plantation'
p1883
(lp1884
S'ENVO:00000163'
p1885
asS'creamery'
p1886
(lp1887
S'ENVO:00003967'
p1888
asS'dry peas product'
p1889
(lp1890
S'ENVO:0010106'
p1891
asS'lixisol'
p1892
(lp1893
S'ENVO:00002242'
p1894
asS'blue cheese'
p1895
(lp1896
S'ENVO:00003887'
p1897
asS'organic matter fall'
p1898
(lp1899
S'ENVO:01000137'
p1900
asS'coal refuse'
p1901
(lp1902
S'ENVO:00002206'
p1903
asS'hindgut'
p1904
(lp1905
S'ID:0000033'
p1906
asS'volcanic hydrographic feature'
p1907
(lp1908
S'ENVO:00000049'
p1909
asS'sea-sludge'
p1910
(lp1911
S'ID:0000090'
p1912
asS'cloth'
p1913
(lp1914
S'ENVO:02000058'
p1915
asS'fork'
p1916
(lp1917
g204
asS'head'
p1918
(lp1919
g835
asS'hotspring'
p1920
(lp1921
S'ENVO:00000051'
p1922
asS'high osmolarity habitat'
p1923
(lp1924
S'ENVO:00002028'
p1925
asS'manmade'
p1926
(lp1927
g657
asS'shelter belt'
p1928
(lp1929
S'ENVO:00000046'
p1930
asS'ford'
p1931
(lp1932
g649
ag649
asS'peninsula'
p1933
(lp1934
g835
ag835
asS'synovial fluid'
p1935
(lp1936
S'ENVO:02000039'
p1937
asS'red soil'
p1938
(lp1939
S'ENVO:00005790'
p1940
asS'berm'
p1941
(lp1942
g443
asS'ocean water'
p1943
(lp1944
S'ENVO:00002151'
p1945
asS'fumarole'
p1946
(lp1947
S'ENVO:00000216'
p1948
asS'coral head'
p1949
(lp1950
g864
asS'bay head bar'
p1951
(lp1952
g99
asS'tempeh'
p1953
(lp1954
S'ENVO:00003779'
p1955
asS'undersea saddle'
p1956
(lp1957
g519
asS'terrestrial ignimbrite shield'
p1958
(lp1959
S'ENVO:00000372'
p1960
asS'weapons test site'
p1961
(lp1962
S'ENVO:00000559'
p1963
asS'cultivated area'
p1964
(lp1965
g997
ag997
ag997
asS'fault zone'
p1966
(lp1967
S'ENVO:00000290'
p1968
asS'RIDGE LINE'
p1969
(lp1970
g279
asS'transvasement'
p1971
(lp1972
S'ENVO:00000445'
p1973
asS'neritic epipelagic zone biome'
p1974
(lp1975
S'ENVO:01000042'
p1976
asS'oil containing feature'
p1977
(lp1978
S'ID:0000121'
p1979
asS'quebrada'
p1980
(lp1981
g417
asS'undersea valley'
p1982
(lp1983
g519
asS'manure'
p1984
(lp1985
g282
ag282
asS'sorghum product'
p1986
(lp1987
S'ENVO:0010099'
p1988
asS'epipelagic zone'
p1989
(lp1990
S'ENVO:00000209'
p1991
asS'intermittent oxbow lake'
p1992
(lp1993
S'ENVO:00000503'
p1994
ag1994
asS'geographic feature'
p1995
(lp1996
S'ENVO:00000000'
p1997
asS'evaporated milk product'
p1998
(lp1999
S'ENVO:00003972'
p2000
asS'mangrove island'
p2001
(lp2002
S'ENVO:00000103'
p2003
ag2003
asS'glacier'
p2004
(lp2005
g1736
ag1736
asS'gold mine drainage'
p2006
(lp2007
S'ENVO:00002112'
p2008
asS'forest soil'
p2009
(lp2010
S'ENVO:00002261'
p2011
asS'water mass front'
p2012
(lp2013
S'ENVO:01000096'
p2014
asS'warehouse'
p2015
(lp2016
S'ENVO:00003963'
p2017
asS'protected area'
p2018
(lp2019
S'ENVO:00000358'
p2020
asS'oil well'
p2021
(lp2022
S'ENVO:01000003'
p2023
ag1979
asS'sabkha'
p2024
(lp2025
g1420
ag1420
ag1813
asS'water divide'
p2026
(lp2027
g279
asS'salad'
p2028
(lp2029
S'ENVO:00003080'
p2030
asS'cryptoendolithic'
p2031
(lp2032
g841
asS'salt marsh'
p2033
(lp2034
S'ENVO:00000054'
p2035
ag2035
asS'chalk soil'
p2036
(lp2037
S'ENVO:00003914'
p2038
asS"Vacherin Mont d'Or"
p2039
(lp2040
S'ENVO:00003061'
p2041
asS'fruit extract product'
p2042
(lp2043
S'ENVO:00003878'
p2044
asS'coral mucus/tissue'
p2045
(lp2046
g894
asS'radioactivity'
p2047
(lp2048
g1825
asS'rock desert'
p2049
(lp2050
S'ENVO:00000173'
p2051
asS'raw milk'
p2052
(lp2053
S'ENVO:02000051'
p2054
asS'eutrophic water'
p2055
(lp2056
S'ENVO:00002224'
p2057
asS'plant-associated habitat'
p2058
(lp2059
S'ENVO:00009001'
p2060
asS'oil field production water'
p2061
(lp2062
g1674
asS'vegetable rennet'
p2063
(lp2064
S'ENVO:0010152'
p2065
asS'MOUTH'
p2066
(lp2067
g1050
asS'wastewater treatment plant'
p2068
(lp2069
S'ENVO:00002043'
p2070
asS'meander'
p2071
(lp2072
g1487
asS'offshore area'
p2073
(lp2074
g1186
asS'Stromatolites'
p2075
(lp2076
g703
asS'meromictoc lake'
p2077
(lp2078
S'ENVO:00000199'
p2079
asS'shop'
p2080
(lp2081
S'ENVO:00002221'
p2082
asS'bulginniakh'
p2083
(lp2084
S'ENVO:00000413'
p2085
asS'intermittent stream'
p2086
(lp2087
S'ENVO:00000024'
p2088
ag2088
asS'canalised stream'
p2089
(lp2090
S'ENVO:00000525'
p2091
asS'coastal shoreline'
p2092
(lp2093
S'ENVO:00000486'
p2094
asS'volcanic dike'
p2095
(lp2096
g186
asS'psamment'
p2097
(lp2098
g1247
asS'pleural effusion'
p2099
(lp2100
S'ENVO:02000033'
p2101
asS'undersea slope'
p2102
(lp2103
g519
asS'undersea bank'
p2104
(lp2105
g519
asS'sour milk'
p2106
(lp2107
S'ENVO:00003979'
p2108
asS'photic zone'
p2109
(lp2110
g1991
asS'coulee'
p2111
(lp2112
g233
ag233
ag207
asS'plant matter fall'
p2113
(lp2114
S'ENVO:01000138'
p2115
asS'passage'
p2116
(lp2117
g204
ag204
asS'koppje'
p2118
(lp2119
g59
asS'must'
p2120
(lp2121
S'ENVO:00003899'
p2122
asS'littoral zone'
p2123
(lp2124
S'ENVO:00000316'
p2125
asS'cotton plantation'
p2126
(lp2127
S'ENVO:00000288'
p2128
ag2128
asS'1,4-dioxane contaminated sludge'
p2129
(lp2130
S'ENVO:00002177'
p2131
asS'riparian area'
p2132
(lp2133
g309
asS'buffalo milk'
p2134
(lp2135
S'ENVO:02000011'
p2136
asS'fermented soya product'
p2137
(lp2138
S'ENVO:0010015'
p2139
asS'warm seep'
p2140
(lp2141
S'ENVO:00002926'
p2142
asS'HOT station ALOHA 4000m depth'
p2143
(lp2144
g1278
asS'AphoticZone'
p2145
(lp2146
S'ENVO:00000210'
p2147
asS'kim chee'
p2148
(lp2149
S'ID:0000083'
p2150
asS'speleothem'
p2151
(lp2152
S'ENVO:00000327'
p2153
asS'volcanic rock'
p2154
(lp2155
S'ENVO:00002015'
p2156
asS'infectious disease-related habitat'
p2157
(lp2158
S'ID:0000017'
p2159
asS'WetlandRegion'
p2160
(lp2161
g309
asS'tear'
p2162
(lp2163
S'ENVO:02000034'
p2164
asS'ethanol enriched soil'
p2165
(lp2166
S'ENVO:00003086'
p2167
asS'bovine cheese product'
p2168
(lp2169
S'ENVO:0010038'
p2170
asS'levee'
p2171
(lp2172
g443
ag443
asS'nut food product'
p2173
(lp2174
S'ENVO:0010084'
p2175
asS'gut'
p2176
(lp2177
g780
asS'yeast cake'
p2178
(lp2179
S'ENVO:00003904'
p2180
asS'Mixed island systems'
p2181
(lp2182
S'ENVO:00002994'
p2183
asS'intercellular fluid'
p2184
(lp2185
g1295
asS'bahia'
p2186
(lp2187
g644
ag339
asS'burnt over area'
p2188
(lp2189
g1786
asS'donkey dairy product'
p2190
(lp2191
S'ENVO:0010022'
p2192
asS'pork'
p2193
(lp2194
S'ENVO:00003062'
p2195
asS'meadow'
p2196
(lp2197
g1365
ag1365
asS'podosolic soil'
p2198
(lp2199
S'ENVO:00002257'
p2200
asS"cow's milk cheese"
p2201
(lp2202
S'ENVO:0010039'
p2203
asS'amaranthaceous food product'
p2204
(lp2205
S'ENVO:0010079'
p2206
asS'oil-contaminated'
p2207
(lp2208
g1347
asS'prairie'
p2209
(lp2210
g263
asS'fan delta'
p2211
(lp2212
g1087
asS'lake bed'
p2213
(lp2214
S'ENVO:00000268'
p2215
aS'ENVO:00000277'
p2216
asS'intermittent lake'
p2217
(lp2218
S'ENVO:00000387'
p2219
ag2219
asS'chott'
p2220
(lp2221
g1813
ag1222
asS'snow field'
p2222
(lp2223
S'ENVO:00000146'
p2224
asS'bovine meat product'
p2225
(lp2226
S'ENVO:0010046'
p2227
asS'velvet bean product'
p2228
(lp2229
S'ENVO:0010117'
p2230
asS'pozol'
p2231
(lp2232
g2200
asS'bar (physiographic)'
p2233
(lp2234
g99
asS'current'
p2235
(lp2236
S'ENVO:00000147'
p2237
ag2237
ag2237
asS'coastal water'
p2238
(lp2239
S'ENVO:00002150'
p2240
ag2240
asS'tea plantation'
p2241
(lp2242
S'ENVO:00000162'
p2243
ag2243
asS'caatinga'
p2244
(lp2245
g276
asS'tideway'
p2246
(lp2247
g204
asS'FLAT'
p2248
(lp2249
S'ENVO:00000241'
p2250
asS'indeterminate root nodule senescent zone'
p2251
(lp2252
S'ENVO:01000172'
p2253
asS'INLET'
p2254
(lp2255
g1865
asS'kame'
p2256
(lp2257
S'ENVO:00000542'
p2258
asS'marine basaltic hydrothermal vent biome'
p2259
(lp2260
S'ENVO:01000054'
p2261
asS'rice paddy soil'
p2262
(lp2263
S'ENVO:00005740'
p2264
asS'anaerobic UASB reactor'
p2265
(lp2266
S'ENVO:00002213'
p2267
asS'agricultural waste'
p2268
(lp2269
S'ENVO:00002265'
p2270
asS'weir'
p2271
(lp2272
S'ENVO:00000535'
p2273
ag2273
asS'water'
p2274
(lp2275
S'ENVO:00002006'
p2276
asS'ice rise'
p2277
(lp2278
S'ENVO:00009686'
p2279
asS'saddle (physiographic)'
p2280
(lp2281
g416
asS'cenote'
p2282
(lp2283
g1422
asS'gorge'
p2284
(lp2285
g207
ag207
ag417
ag417
asS'marine surface current'
p2286
(lp2287
S'ENVO:01000099'
p2288
asS'subgingival calculus'
p2289
(lp2290
S'ID:0000022'
p2291
asS'xylene contaminated soil'
p2292
(lp2293
S'ENVO:00002146'
p2294
asS'rhizospheric soil'
p2295
(lp2296
g815
asS'radioactive feature'
p2297
(lp2298
g1825
asS'glacial berg'
p2299
(lp2300
g1292
asS'intermittent body of water'
p2301
(lp2302
S'ENVO:00000549'
p2303
asS'cervid milk'
p2304
(lp2305
S'ENVO:0010034'
p2306
asS'coastal zone'
p2307
(lp2308
g1186
aS'ENVO:00000304'
p2309
ag2125
ag2094
asS'bog'
p2310
(lp2311
g309
ag309
ag797
ag797
ag797
asS'tomato product'
p2312
(lp2313
S'ENVO:0010076'
p2314
asS'road junction'
p2315
(lp2316
g16
asS'neritic sea surface microlayer biome'
p2317
(lp2318
S'ENVO:01000041'
p2319
asS'achondrite'
p2320
(lp2321
S'ENVO:00002050'
p2322
asS'undersea platform'
p2323
(lp2324
g519
asS'sebum'
p2325
(lp2326
S'ENVO:02000037'
p2327
asS'turlough'
p2328
(lp2329
S'ENVO:00000454'
p2330
asS'sewage plant'
p2331
(lp2332
S'ENVO:00003043'
p2333
asS'moraine'
p2334
(lp2335
g259
ag259
aS'ENVO:00000249'
p2336
ag1036
asS'peat soil'
p2337
(lp2338
S'ENVO:00005774'
p2339
asS'chicken yard waste'
p2340
(lp2341
S'ENVO:00002266'
p2342
asS'navigation channel'
p2343
(lp2344
g410
ag410
asS'islet'
p2345
(lp2346
g367
ag367
ag367
asS'tidal mudflat'
p2347
(lp2348
g2250
asS'salting'
p2349
(lp2350
g2035
asS'sake'
p2351
(lp2352
S'ENVO:00003912'
p2353
asS'brine well'
p2354
(lp2355
g1033
asS'marine anoxic zone'
p2356
(lp2357
g989
asS'vineyard'
p2358
(lp2359
S'ENVO:00000116'
p2360
ag2360
asS'terrarium'
p2361
(lp2362
S'ENVO:00000349'
p2363
asS'slough'
p2364
(lp2365
g309
ag309
ag309
ag339
asS'Cueva de Altamira'
p2366
(lp2367
S'ENVO:00000102'
p2368
asS'vertisol'
p2369
(lp2370
S'ENVO:00002254'
p2371
asS'apple juice'
p2372
(lp2373
S'ENVO:00003879'
p2374
asS'volcanic group'
p2375
(lp2376
g949
asS'disposal site'
p2377
(lp2378
S'ENVO:00000533'
p2379
asS'pork chop'
p2380
(lp2381
S'ENVO:00003079'
p2382
asS'ocean bed'
p2383
(lp2384
S'ENVO:00000426'
p2385
asS'sea bottom'
p2386
(lp2387
g1593
asS'tailing'
p2388
(lp2389
g149
asS'tundra'
p2390
(lp2391
S'ENVO:00000112'
p2392
ag2392
asS'chocolate'
p2393
(lp2394
S'ENVO:02000065'
p2395
asS'grain of acid dune sand'
p2396
(lp2397
S'ENVO:00000346'
p2398
asS'manufactured product'
p2399
(lp2400
S'ENVO:00003074'
p2401
asS'marine coral reef biome'
p2402
(lp2403
S'ENVO:01000049'
p2404
asS'appendix'
p2405
(lp2406
S'ID:0000005'
p2407
asS'dismal'
p2408
(lp2409
g309
asS'thermal feature'
p2410
(lp2411
g1145
ag1922
ag1948
asS'Permafrost'
p2412
(lp2413
g1838
asS'SBR'
p2414
(lp2415
S'ID:0000070'
p2416
asS'beef mince'
p2417
(lp2418
S'ENVO:02000067'
p2419
asS'cay'
p2420
(lp2421
g367
ag367
asS'water meadow'
p2422
(lp2423
S'ENVO:00000154'
p2424
asS'douchi'
p2425
(lp2426
S'ID:0000044'
p2427
asS'cave entrance'
p2428
(lp2429
g2368
asS'bioreactor with fermentative hydrogen production'
p2430
(lp2431
S'ID:0000079'
p2432
asS'buffalo dairy product'
p2433
(lp2434
S'ENVO:0010020'
p2435
asS'stable manure'
p2436
(lp2437
S'ENVO:00003927'
p2438
asS'bioreactor with fermentative biohydrogen production'
p2439
(lp2440
g2432
asS'high-level radioactive sediment'
p2441
(lp2442
S'ENVO:00002155'
p2443
asS'kavir'
p2444
(lp2445
g1813
asS'bathypelagic'
p2446
(lp2447
g513
asS'pond bed'
p2448
(lp2449
S'ENVO:00000512'
p2450
asS'farmyard manure'
p2451
(lp2452
S'ENVO:00003884'
p2453
asS'tidal marsh'
p2454
(lp2455
g2035
asS'inhabited place'
p2456
(lp2457
g760
asS'overpass'
p2458
(lp2459
g19
asS'BAR'
p2460
(lp2461
g99
asS'stream'
p2462
(lp2463
g203
ag203
ag2088
ag204
aS'ENVO:00000041'
p2464
ag118
ag1484
aS'ENVO:00000153'
p2465
aS'ENVO:00000272'
p2466
aS'ENVO:00000278'
p2467
aS'ENVO:00000385'
p2468
ag1487
ag1289
ag1459
asS'anaerobic ice core sample'
p2469
(lp2470
S'ID:0000049'
p2471
asS'floating marsh'
p2472
(lp2473
g309
asS'sandbar'
p2474
(lp2475
g99
ag99
asS'pond'
p2476
(lp2477
S'ENVO:00000033'
p2478
ag2478
ag2478
asS'ice piedmont'
p2479
(lp2480
S'ENVO:00009725'
p2481
asS'RiparianWetland'
p2482
(lp2483
g309
asS'orchid soil'
p2484
(lp2485
S'ENVO:00005768'
p2486
asS'foreshore flats'
p2487
(lp2488
g480
asS'IceFloe'
p2489
(lp2490
g1292
asS'sandstone'
p2491
(lp2492
S'ENVO:00002055'
p2493
asS'confectionery product'
p2494
(lp2495
S'ENVO:0010061'
p2496
asS'arsenic-rich mud'
p2497
(lp2498
S'ENVO:00002122'
p2499
asS'jet fuel'
p2500
(lp2501
S'ENVO:00003903'
p2502
asS'marine channel'
p2503
(lp2504
S'ENVO:00000396'
p2505
ag2505
asS'flank'
p2506
(lp2507
g693
asS'marine thermocline'
p2508
(lp2509
S'ENVO:01000075'
p2510
asS'freshwater fish product'
p2511
(lp2512
S'ENVO:0010165'
p2513
asS'glacial landform'
p2514
(lp2515
g87
asS'undersea shelf edge'
p2516
(lp2517
g519
asS'plant lipid food product'
p2518
(lp2519
S'ENVO:0010086'
p2520
asS'lacustrine mudflat'
p2521
(lp2522
S'ENVO:00000242'
p2523
asS'deciduous forest'
p2524
(lp2525
g276
asS'rift lake'
p2526
(lp2527
S'ENVO:00000203'
p2528
asS'Temperate Desert Division (340)'
p2529
(lp2530
S'ENVO:00003021'
p2531
asS'marginal ice zone front'
p2532
(lp2533
S'ENVO:01000095'
p2534
asS'plant seed food product'
p2535
(lp2536
S'ENVO:0010085'
p2537
asS'badlands'
p2538
(lp2539
S'ENVO:00000127'
p2540
asS'contaminated site'
p2541
(lp2542
S'ENVO:00002204'
p2543
asS'salt lakes'
p2544
(lp2545
g542
asS'bottomland'
p2546
(lp2547
g143
asS'cascade'
p2548
(lp2549
g121
ag121
asS'equine dairy product'
p2550
(lp2551
S'ENVO:0010023'
p2552
asS'lagoon'
p2553
(lp2554
g566
ag566
asS'flood meadow'
p2555
(lp2556
g2424
asS'freshwater biome'
p2557
(lp2558
S'ENVO:00000873'
p2559
asS'lake island'
p2560
(lp2561
S'ENVO:00000424'
p2562
asS'beach cusp'
p2563
(lp2564
g488
asS'estuary'
p2565
(lp2566
S'ENVO:00000045'
p2567
ag2567
asS'hill range'
p2568
(lp2569
S'ENVO:00000082'
p2570
asS'undersea canyon'
p2571
(lp2572
g312
asS'drainage ditch'
p2573
(lp2574
S'ENVO:00000140'
p2575
ag2575
ag2575
asS'course'
p2576
(lp2577
g204
asS'pyritic acid mine drainage'
p2578
(lp2579
S'ENVO:00002195'
p2580
asS'terrace'
p2581
(lp2582
g591
ag356
ag356
asS'coniferous forest'
p2583
(lp2584
g276
asS'River'
p2585
(lp2586
S'ENVO:00000022'
p2587
asS'prepared meat product'
p2588
(lp2589
S'ENVO:00002175'
p2590
asS'marine pycnocline'
p2591
(lp2592
S'ENVO:01000077'
p2593
asS'laguna'
p2594
(lp2595
g566
ag566
asS'intermittent watercourse'
p2596
(lp2597
S'ENVO:00000388'
p2598
asS'estuarine front'
p2599
(lp2600
S'ENVO:01000084'
p2601
asS'sequential batch reactor'
p2602
(lp2603
g2416
asS'milker'
p2604
(lp2605
S'ID:0000028'
p2606
asS'whirlpool'
p2607
(lp2608
S'ENVO:00000409'
p2609
asS'apron'
p2610
(lp2611
S'ENVO:00000530'
p2612
ag2612
asS'soda lake'
p2613
(lp2614
g542
aS'ENVO:00002121'
p2615
asS'nation'
p2616
(lp2617
g167
asS'polder'
p2618
(lp2619
g1076
ag1076
asS'Abyssalplain'
p2620
(lp2621
S'ENVO:00000244'
p2622
asS'seasonal marine thermocline'
p2623
(lp2624
S'ENVO:01000107'
p2625
asS'smoked meat'
p2626
(lp2627
S'ENVO:0010137'
p2628
asS'AgriculturalLands'
p2629
(lp2630
g111
asS'cuspate bar'
p2631
(lp2632
g99
asS'pomaceous fruit product'
p2633
(lp2634
S'ENVO:0010070'
p2635
asS'organ culture'
p2636
(lp2637
S'ENVO:02000010'
p2638
asS'chernozem'
p2639
(lp2640
g1134
asS'LAKE'
p2641
(lp2642
g709
asS'rock'
p2643
(lp2644
g841
asS'thorofare'
p2645
(lp2646
g16
asS"goat's milk cheese"
p2647
(lp2648
S'ENVO:0010041'
p2649
asS'tobacco warehouse'
p2650
(lp2651
S'ENVO:00003964'
p2652
asS'CLIFF'
p2653
(lp2654
g1619
asS'peat swamp'
p2655
(lp2656
S'ENVO:00000189'
p2657
asS'glacier feature'
p2658
(lp2659
g87
ag1323
asS'pigeon pea product'
p2660
(lp2661
S'ENVO:0010108'
p2662
asS'saliva'
p2663
(lp2664
S'ENVO:02000036'
p2665
asS'marine current'
p2666
(lp2667
S'ENVO:01000067'
p2668
asS'brackish water'
p2669
(lp2670
S'ENVO:00002019'
p2671
asS'undersea bench'
p2672
(lp2673
g519
asS'PEAK'
p2674
(lp2675
g1324
asS'cave wall'
p2676
(lp2677
S'ENVO:00002144'
p2678
asS'Large river headwater biome'
p2679
(lp2680
S'ENVO:00000888'
p2681
asS'platinum mine'
p2682
(lp2683
S'ENVO:00002167'
p2684
asS'fonio product'
p2685
(lp2686
S'ENVO:0010105'
p2687
asS'ice cream'
p2688
(lp2689
S'ENVO:00003072'
p2690
asS'animal waste'
p2691
(lp2692
S'ENVO:00002276'
p2693
asS'fermented pomaceous fruit beverage'
p2694
(lp2695
S'ENVO:0010071'
p2696
asS'Peatland'
p2697
(lp2698
g797
asS'logged area'
p2699
(lp2700
g1786
asS'ant hill'
p2701
(lp2702
S'ENVO:00005804'
p2703
asS'bovine milk'
p2704
(lp2705
S'ENVO:00003068'
p2706
asS'barley product'
p2707
(lp2708
S'ENVO:0010103'
p2709
asS'jungle soil'
p2710
(lp2711
S'ENVO:00005751'
p2712
asS'aviation fuel'
p2713
(lp2714
g2502
asS'Rainforest Division (420)'
p2715
(lp2716
S'ENVO:00003020'
p2717
asS'alluvial plain'
p2718
(lp2719
S'ENVO:00000258'
p2720
asS'braided river'
p2721
(lp2722
g2587
asS'shoreface'
p2723
(lp2724
g2309
asS'back marsh'
p2725
(lp2726
g309
asS'muddy soil'
p2727
(lp2728
S'ENVO:00005771'
p2729
asS'estuarine mud'
p2730
(lp2731
S'ENVO:00002160'
p2732
asS'carr'
p2733
(lp2734
S'ENVO:00000235'
p2735
asS'radioactive waste disposal site'
p2736
(lp2737
S'ID:0000129'
p2738
asS'fluvial dambo'
p2739
(lp2740
S'ENVO:00000238'
p2741
asS'photophore'
p2742
(lp2743
S'ENVO:01000163'
p2744
asS'Polar Domain (100)'
p2745
(lp2746
S'ENVO:00003000'
p2747
asS'oasis'
p2748
(lp2749
g522
ag522
asS'oronasal secretion'
p2750
(lp2751
S'ENVO:02000035'
p2752
asS'Arctic pack'
p2753
(lp2754
g326
asS'pickled food product'
p2755
(lp2756
S'ENVO:00003928'
p2757
asS'FORD'
p2758
(lp2759
g649
asS'chloropicrine-enriched soil'
p2760
(lp2761
S'ENVO:00005762'
p2762
asS'fermented food product'
p2763
(lp2764
S'ENVO:01000013'
p2765
asS'Large lake biome'
p2766
(lp2767
S'ENVO:00000891'
p2768
asS'ice patch'
p2769
(lp2770
g1696
asS'seafood product'
p2771
(lp2772
S'ENVO:00003073'
p2773
asS'marine mud'
p2774
(lp2775
S'ENVO:00005795'
p2776
asS'place'
p2777
(lp2778
g760
asS'research facility'
p2779
(lp2780
S'ENVO:00000469'
p2781
asS'transverse bar'
p2782
(lp2783
g99
asS'terracette'
p2784
(lp2785
S'ENVO:00000441'
p2786
asS'oxbow'
p2787
(lp2788
S'ENVO:00000202'
p2789
asS'lawn soil'
p2790
(lp2791
S'ENVO:00005756'
p2792
asS'continental margin'
p2793
(lp2794
g858
asS'animal food product'
p2795
(lp2796
S'ENVO:0010000'
p2797
asS'nunataks'
p2798
(lp2799
g1323
asS'marine coral reef crest'
p2800
(lp2801
S'ENVO:01000146'
p2802
asS'municipality'
p2803
(lp2804
S'ENVO:00000856'
p2805
ag2805
asS'dechlorinating consortium'
p2806
(lp2807
g639
asS'vertically mixed estuary'
p2808
(lp2809
S'ENVO:00000227'
p2810
asS'drove'
p2811
(lp2812
g16
asS'city'
p2813
(lp2814
g2805
asS'boulevard'
p2815
(lp2816
g16
asS'undersea plain'
p2817
(lp2818
g519
asS'cecal contents'
p2819
(lp2820
g2407
asS'sand hill'
p2821
(lp2822
g74
asS'bench (seafloor)'
p2823
(lp2824
g504
asS'ground beef'
p2825
(lp2826
g2419
asS'LacustrineWetland'
p2827
(lp2828
g309
asS'WATERFALL'
p2829
(lp2830
g121
asS'spore'
p2831
(lp2832
g1870
asS'turkey meat product'
p2833
(lp2834
S'ENVO:02000071'
p2835
asS'yoghourt'
p2836
(lp2837
g236
asS'milk product'
p2838
(lp2839
S'ENVO:01000012'
p2840
asS'dam site'
p2841
(lp2842
S'ENVO:00000074'
p2843
asS'bay barrier'
p2844
(lp2845
g99
asS'undersea cliff'
p2846
(lp2847
g519
asS'crevice'
p2848
(lp2849
g1007
asS'forested wetland'
p2850
(lp2851
g309
asS'radioactive sediment'
p2852
(lp2853
g597
asS'mesoscale marine eddy'
p2854
(lp2855
S'ENVO:01000069'
p2856
asS'undersea levee'
p2857
(lp2858
g519
asS'anoxic sediment'
p2859
(lp2860
S'ENVO:00002045'
p2861
asS'iceberg'
p2862
(lp2863
g1292
ag1696
asS'waste treatment plant'
p2864
(lp2865
g952
asS'caused by human activity'
p2866
(lp2867
g657
asS'tableknoll'
p2868
(lp2869
g1330
asS'marine benthic feature'
p2870
(lp2871
S'ENVO:01000105'
p2872
asS'CATCHMENT'
p2873
(lp2874
g306
asS'coastal dune'
p2875
(lp2876
S'ENVO:00000416'
p2877
asS'marine upwelling'
p2878
(lp2879
S'ENVO:01000063'
p2880
asS'tar pit'
p2881
(lp2882
g1421
asS'terminal moraine'
p2883
(lp2884
g1036
asS'geothermal field'
p2885
(lp2886
S'ENVO:00000373'
p2887
asS'natural arch'
p2888
(lp2889
g47
asS'mangal'
p2890
(lp2891
g654
asS'talik'
p2892
(lp2893
S'ENVO:00000552'
p2894
asS'grotto'
p2895
(lp2896
S'ENVO:00000067'
p2897
ag2897
asS'uranium contaminated groundwater'
p2898
(lp2899
S'ID:0000134'
p2900
asS'arete'
p2901
(lp2902
g488
ag488
aS'ENVO:00000429'
p2903
asS'alley'
p2904
(lp2905
g16
asS'chickpea product'
p2906
(lp2907
S'ENVO:0010111'
p2908
asS'pastry'
p2909
(lp2910
S'ENVO:0010124'
p2911
asS'avian food product'
p2912
(lp2913
S'ENVO:0010167'
p2914
asS'Cold-winter (continental) deserts and semideserts'
p2915
(lp2916
S'ENVO:00002997'
p2917
asS'BASIN'
p2918
(lp2919
g291
asS'dyke (geologic)'
p2920
(lp2921
g186
asS'chanaral'
p2922
(lp2923
g276
asS'livestock-associated habitat'
p2924
(lp2925
S'ENVO:02000005'
p2926
asS'undersea shelf'
p2927
(lp2928
g519
asS'undersea gap'
p2929
(lp2930
g519
asS'inselberg'
p2931
(lp2932
S'ENVO:00000432'
p2933
ag59
asS'bagasse'
p2934
(lp2935
S'ENVO:00002872'
p2936
asS'unpasteruized cow milk cheese'
p2937
(lp2938
S'ENVO:02000086'
p2939
asS'spoiled tofu'
p2940
(lp2941
S'ID:0000082'
p2942
asS'whale bone'
p2943
(lp2944
S'ID:0000104'
p2945
asS'camelid milk'
p2946
(lp2947
S'ENVO:0010032'
p2948
asS'brackish water habitat'
p2949
(lp2950
S'ENVO:00000570'
p2951
asS'channel'
p2952
(lp2953
g65
ag1373
ag1486
ag847
ag847
ag847
ag2505
aS'ENVO:00000397'
p2954
ag1865
asS'potato silage'
p2955
(lp2956
S'ENVO:00003978'
p2957
asS'anthropogenic habitat'
p2958
(lp2959
S'ENVO:00002031'
p2960
asS'track'
p2961
(lp2962
g1392
asS'anaerobic sludge blanket reactor'
p2963
(lp2964
g2267
asS'molecule'
p2965
(lp2966
S'ID:0000089'
p2967
asS'falls'
p2968
(lp2969
g121
asS'barrage'
p2970
(lp2971
g2843
asS'delta moraine'
p2972
(lp2973
g1036
asS'upland'
p2974
(lp2975
g1330
ag1330
ag1330
asS'substratum'
p2976
(lp2977
S'ID:0000077'
p2978
asS'inlet (hydrographic)'
p2979
(lp2980
g847
asS'scroll plane'
p2981
(lp2982
S'ENVO:00000253'
p2983
asS'arrugado'
p2984
(lp2985
S'ENVO:00000538'
p2986
ag2986
ag2986
asS'CoralReef'
p2987
(lp2988
g894
asS'range of mounts'
p2989
(lp2990
S'ENVO:00000478'
p2991
asS'drive'
p2992
(lp2993
g16
asS'amenity lake'
p2994
(lp2995
S'ENVO:00000451'
p2996
asS'coarse beach sand'
p2997
(lp2998
S'ENVO:00002148'
p2999
asS'aerosol'
p3000
(lp3001
S'ENVO:00010505'
p3002
asS'grassland'
p3003
(lp3004
g226
ag226
ag1365
ag1365
aS'ENVO:00000114'
p3005
ag128
ag263
ag263
ag1499
ag1499
ag1286
ag1286
ag227
ag1786
asS'intermittent lakes'
p3006
(lp3007
g2219
asS'marine warm-water sphere'
p3008
(lp3009
S'ENVO:01000109'
p3010
asS'crustal fluid'
p3011
(lp3012
S'ID:0000100'
p3013
asS'corrie'
p3014
(lp3015
g152
asS'slope'
p3016
(lp3017
g693
asS'ice cliff'
p3018
(lp3019
g1619
asS'headstream'
p3020
(lp3021
g2465
asS'reef'
p3022
(lp3023
g893
ag893
ag894
aS'ENVO:00000166'
p3024
asS'cucurbit fruit product'
p3025
(lp3026
S'ENVO:0010062'
p3027
asS'cloaca'
p3028
(lp3029
S'ID:0000084'
p3030
asS'mineral spring'
p3031
(lp3032
g1162
asS'rockfall'
p3033
(lp3034
g1079
ag1079
asS'bantu beer'
p3035
(lp3036
g1820
asS'luvisol'
p3037
(lp3038
S'ENVO:00002248'
p3039
asS'cis-dichloroethane contaminated sediment'
p3040
(lp3041
S'ENVO:00002201'
p3042
asS'inshore'
p3043
(lp3044
g2309
asS'New Zealand Cheddar'
p3045
(lp3046
S'ENVO:00003059'
p3047
asS'sprout'
p3048
(lp3049
S'ID:0000032'
p3050
asS'gulf'
p3051
(lp3052
g644
ag644
ag1865
ag1865
asS'everglade'
p3053
(lp3054
g309
asS'distilled water'
p3055
(lp3056
S'ENVO:00003065'
p3057
asS'tears'
p3058
(lp3059
g2164
asS'wood'
p3060
(lp3061
g276
ag276
ag276
ag387
ag941
aS'ENVO:00000193'
p3062
aS'ENVO:00002040'
p3063
asS'intestines'
p3064
(lp3065
g780
asS'savanna soil'
p3066
(lp3067
S'ENVO:00005746'
p3068
asS'sierra'
p3069
(lp3070
g317
asS'HEDGE'
p3071
(lp3072
g1930
asS'oral isolate'
p3073
(lp3074
g1051
asS'cuttoff'
p3075
(lp3076
g449
asS'hot chocolate'
p3077
(lp3078
S'ENVO:0010159'
p3079
asS'ash cone'
p3080
(lp3081
S'ENVO:00000399'
p3082
asS'oyster product'
p3083
(lp3084
S'ENVO:02000079'
p3085
asS'outlet'
p3086
(lp3087
g1050
asS'hedge'
p3088
(lp3089
g1930
asS'geo'
p3090
(lp3091
g644
asS'oats product'
p3092
(lp3093
S'ENVO:0010101'
p3094
asS'dry soil'
p3095
(lp3096
S'ENVO:00005748'
p3097
asS'bodily fluid'
p3098
(lp3099
S'ENVO:02000019'
p3100
asS'pinnacle'
p3101
(lp3102
g864
asS'Abyssalhill'
p3103
(lp3104
S'ENVO:00000190'
p3105
asS'coastal inlet'
p3106
(lp3107
S'ENVO:00000137'
p3108
ag3108
asS'Superfund Site'
p3109
(lp3110
S'ENVO:00002156'
p3111
asS'dry stream bed'
p3112
(lp3113
g2467
ag2467
ag1444
asS'mycorrhiza'
p3114
(lp3115
S'ID:0000115'
p3116
asS'seamount'
p3117
(lp3118
g40
ag40
ag1441
asS'surface soil'
p3119
(lp3120
S'ENVO:02000059'
p3121
asS'powdered milk formula'
p3122
(lp3123
S'ENVO:00002188'
p3124
asS'bioreactor'
p3125
(lp3126
S'ENVO:00002123'
p3127
asS'freshwater marsh'
p3128
(lp3129
S'ENVO:00000053'
p3130
asS'TUNDRA'
p3131
(lp3132
g2392
asS'trophosome'
p3133
(lp3134
S'ENVO:01000165'
p3135
asS'botanical garden'
p3136
(lp3137
S'ENVO:00010624'
p3138
asS'tidal creek'
p3139
(lp3140
g2464
ag2464
asS'abyssal plain'
p3141
(lp3142
g2622
asS'dry stream'
p3143
(lp3144
g2467
asS'river mouth'
p3145
(lp3146
S'ENVO:00000386'
p3147
asS'calcisol'
p3148
(lp3149
S'ENVO:00002239'
p3150
asS'ice mass'
p3151
(lp3152
g326
ag1292
ag1696
aS'ENVO:00000307'
p3153
ag812
asS'cienaga'
p3154
(lp3155
g309
aS'ENVO:00000233'
p3156
asS'tea-based beverage'
p3157
(lp3158
S'ENVO:0010050'
p3159
asS'calcareous ooze'
p3160
(lp3161
S'ENVO:02000046'
p3162
asS'ocean biome'
p3163
(lp3164
S'ENVO:01000048'
p3165
asS'self-heating coal mine waste'
p3166
(lp3167
S'ENVO:00002207'
p3168
asS'seamount chain'
p3169
(lp3170
g579
asS'drain channel'
p3171
(lp3172
g1482
asS'oceanic hadal pelagic zone biome'
p3173
(lp3174
S'ENVO:01000039'
p3175
asS'fertilized soil'
p3176
(lp3177
S'ENVO:00005754'
p3178
asS'subsequent stream'
p3179
(lp3180
S'ENVO:00000491'
p3181
asS'oral swab'
p3182
(lp3183
g1051
asS'cantaloupe'
p3184
(lp3185
S'ENVO:02000074'
p3186
asS'grape beverage'
p3187
(lp3188
S'ENVO:0010012'
p3189
asS'dome'
p3190
(lp3191
g59
asS'oceanic bathypelagic zone biome'
p3192
(lp3193
S'ENVO:01000037'
p3194
asS'rice straw'
p3195
(lp3196
S'ENVO:00003870'
p3197
asS'paddy field'
p3198
(lp3199
S'ENVO:00000297'
p3200
asS'cirques'
p3201
(lp3202
g152
asS'volcanic soil'
p3203
(lp3204
S'ENVO:00005785'
p3205
asS'isthmus'
p3206
(lp3207
g1113
ag1113
asS'TerrestialWetland'
p3208
(lp3209
g309
asS'orange juice'
p3210
(lp3211
S'ENVO:00000337'
p3212
asS'populated locality'
p3213
(lp3214
g760
asS'alimentary tract'
p3215
(lp3216
g780
asS'chemostat'
p3217
(lp3218
S'ID:0000105'
p3219
asS'alluvial paddy field soil'
p3220
(lp3221
S'ENVO:00005759'
p3222
asS'mesoscopic physical object'
p3223
(lp3224
S'ENVO:00002004'
p3225
asS'fire break'
p3226
(lp3227
g1786
asS'dead cave'
p3228
(lp3229
g158
asS'banana plantation'
p3230
(lp3231
S'ENVO:00000161'
p3232
ag3232
asS'railway'
p3233
(lp3234
S'ENVO:00000065'
p3235
asS'millpond'
p3236
(lp3237
g2478
ag2478
asS'cosmetic product'
p3238
(lp3239
S'ENVO:00003893'
p3240
asS'DEMILITIARIZED ZONE'
p3241
(lp3242
g1237
asS'high salinity'
p3243
(lp3244
g880
asS'shelf ice'
p3245
(lp3246
g326
asS'Tropical humid forests'
p3247
(lp3248
S'ENVO:00002993'
p3249
asS'biofilm'
p3250
(lp3251
S'ENVO:00002034'
p3252
asS'lava cave'
p3253
(lp3254
S'ENVO:00000322'
p3255
asS'sugarcane bagasse'
p3256
(lp3257
g2936
asS'butte'
p3258
(lp3259
g528
aS'ENVO:00000287'
p3260
ag3260
asS'iron-reducing zone of petroleum contaminated sediment'
p3261
(lp3262
S'ENVO:00002178'
p3263
asS'lower littoral'
p3264
(lp3265
S'ENVO:00000319'
p3266
asS'cold seep'
p3267
(lp3268
S'ENVO:00000425'
p3269
asS'pelagic zone'
p3270
(lp3271
S'ENVO:00000208'
p3272
asS'TUNNEL'
p3273
(lp3274
g727
asS'bioremediation'
p3275
(lp3276
S'ID:0000071'
p3277
asS'sea floor'
p3278
(lp3279
g1593
asS'plant spore'
p3280
(lp3281
S'ID:0000010'
p3282
asS'Cheddar cheese'
p3283
(lp3284
S'ENVO:00003051'
p3285
asS'sub-sea floor sediment'
p3286
(lp3287
S'ENVO:00002113'
p3288
asS'cow shed'
p3289
(lp3290
S'ENVO:00003041'
p3291
asS'railroad feature'
p3292
(lp3293
g3235
asS'gland'
p3294
(lp3295
S'ID:0000055'
p3296
asS'macroscopic spatial feature'
p3297
(lp3298
g1997
asS'stalactite'
p3299
(lp3300
S'ENVO:00000331'
p3301
asS'kynurenate enriched soil'
p3302
(lp3303
S'ENVO:00003090'
p3304
asS'rice field'
p3305
(lp3306
S'ENVO:00000296'
p3307
asS'Watershed'
p3308
(lp3309
g306
asS'soil from rhizosphere'
p3310
(lp3311
g815
asS'shore reef'
p3312
(lp3313
g893
asS'stream channel'
p3314
(lp3315
g1444
ag1444
ag847
asS'grain of rocky sand'
p3316
(lp3317
S'ENVO:00000348'
p3318
asS'sound'
p3319
(lp3320
g1373
ag1373
asS'sea sand'
p3321
(lp3322
S'ENVO:00002118'
p3323
asS'anaerobic digester sludge'
p3324
(lp3325
S'ENVO:00003965'
p3326
asS'jack bean product'
p3327
(lp3328
S'ENVO:0010119'
p3329
asS'mount'
p3330
(lp3331
g344
ag345
ag663
ag74
aS'ENVO:00000180'
p3332
ag682
ag594
aS'ENVO:00000400'
p3333
aS'ENVO:00000403'
p3334
ag2085
ag2933
ag59
ag2258
asS'dry dam'
p3335
(lp3336
S'ENVO:00000557'
p3337
asS'scum'
p3338
(lp3339
S'ENVO:00003930'
p3340
asS'rinnental'
p3341
(lp3342
S'ENVO:00000436'
p3343
asS'mound'
p3344
(lp3345
g344
ag3332
ag3332
asS'landslide'
p3346
(lp3347
g1078
asS'marine park'
p3348
(lp3349
S'ENVO:00000362'
p3350
asS'plant tissue culture'
p3351
(lp3352
S'ENVO:02000009'
p3353
asS'polar ice'
p3354
(lp3355
g326
asS'seakpeak'
p3356
(lp3357
g40
ag40
asS'mucus'
p3358
(lp3359
S'ENVO:02000040'
p3360
asS'soil'
p3361
(lp3362
S'ENVO:00001998'
p3363
asS'fissure vent'
p3364
(lp3365
S'ENVO:00000408'
p3366
asS'strait'
p3367
(lp3368
g1486
ag1486
ag847
asS'joint-plane cave'
p3369
(lp3370
S'ENVO:00000321'
p3371
asS'salt water aquarium'
p3372
(lp3373
S'ENVO:00002197'
p3374
asS'forest clearing'
p3375
(lp3376
g1786
asS'truck farm'
p3377
(lp3378
g997
asS'vitreous body'
p3379
(lp3380
g806
asS'sea water fish product'
p3381
(lp3382
S'ENVO:00003875'
p3383
asS'terrestrial habitat'
p3384
(lp3385
S'ENVO:00002009'
p3386
asS'waterway'
p3387
(lp3388
g204
asS'lesions of fistulous withers'
p3389
(lp3390
g6
asS'ocean current'
p3391
(lp3392
g2237
ag2237
asS'dry valley'
p3393
(lp3394
S'ENVO:00000128'
p3395
asS'stony-iron meteorite'
p3396
(lp3397
S'ENVO:00002051'
p3398
asS'woodland'
p3399
(lp3400
g127
ag276
ag387
ag128
ag1228
asS'quagmire'
p3401
(lp3402
S'ENVO:00000035'
p3403
ag3403
ag309
ag309
asS'PENINSULA'
p3404
(lp3405
g835
asS'OASIS'
p3406
(lp3407
g522
asS'EMBANKMENT'
p3408
(lp3409
g443
asS'mud volcano'
p3410
(lp3411
S'ENVO:00000402'
p3412
asS'plant stem'
p3413
(lp3414
S'ID:0000098'
p3415
asS'resequent stream'
p3416
(lp3417
S'ENVO:00000492'
p3418
asS'isle'
p3419
(lp3420
g367
asS'pan'
p3421
(lp3422
g291
ag291
asS'oil'
p3423
(lp3424
S'ENVO:00002985'
p3425
aS'ID:0000120'
p3426
asS'foam'
p3427
(lp3428
S'ENVO:00005738'
p3429
asS'ness'
p3430
(lp3431
g835
asS'hadopelagic'
p3432
(lp3433
g513
asS'colloidal sediment'
p3434
(lp3435
S'ENVO:01000121'
p3436
asS'winter sports facility'
p3437
(lp3438
S'ENVO:00000566'
p3439
asS'drain'
p3440
(lp3441
g757
ag757
asS'drinking water reservoir'
p3442
(lp3443
S'ENVO:00000449'
p3444
asS'sand'
p3445
(lp3446
S'ENVO:01000017'
p3447
asS'dairy cow rumen'
p3448
(lp3449
g177
asS'ranch'
p3450
(lp3451
g112
ag112
ag112
asS'diseased'
p3452
(lp3453
g2159
asS'sinkhole'
p3454
(lp3455
g1422
asS'mediterranean sea biome'
p3456
(lp3457
S'ENVO:01000047'
p3458
asS'fluvial island'
p3459
(lp3460
g783
asS'creamy salad dressing'
p3461
(lp3462
S'ENVO:0010143'
p3463
asS'arid region'
p3464
(lp3465
g735
asS'rocky sand'
p3466
(lp3467
S'ENVO:00005799'
p3468
asS'platform (continental margin)'
p3469
(lp3470
g858
asS'livestock'
p3471
(lp3472
g2926
asS'marine coral reef fore reef'
p3473
(lp3474
S'ENVO:01000147'
p3475
asS'ice shelf'
p3476
(lp3477
S'ENVO:00000380'
p3478
asS'barrier beach'
p3479
(lp3480
g99
asS'PARK'
p3481
(lp3482
S'ENVO:00000011'
p3483
asS'corrie loch'
p3484
(lp3485
S'ENVO:00000455'
p3486
asS'indeterminate root nodule infection zone'
p3487
(lp3488
S'ENVO:01000170'
p3489
asS'foot'
p3490
(lp3491
S'ID:0000024'
p3492
asS'Montane grasslands and shrubland biome'
p3493
(lp3494
S'ENVO:00000882'
p3495
asS'kill'
p3496
(lp3497
g204
asS'ice cap depression'
p3498
(lp3499
g1234
asS'lupin seed product'
p3500
(lp3501
S'ENVO:0010118'
p3502
asS'industrial building'
p3503
(lp3504
S'ENVO:00003861'
p3505
asS'Subtropical and temperate rainforests or woodlands'
p3506
(lp3507
S'ENVO:00002991'
p3508
asS'lete'
p3509
(lp3510
S'ENVO:00000544'
p3511
asS'hydroelectric dam'
p3512
(lp3513
S'ENVO:00000468'
p3514
asS'outwash fan'
p3515
(lp3516
S'ENVO:00000434'
p3517
asS'organic feature'
p3518
(lp3519
S'ENVO:01000159'
p3520
asS'irrigation dam'
p3521
(lp3522
S'ENVO:00000470'
p3523
asS'aerobic bioreactor'
p3524
(lp3525
S'ENVO:00002126'
p3526
asS'caecum'
p3527
(lp3528
g2407
asS'meteorite'
p3529
(lp3530
S'ENVO:00002035'
p3531
asS'wood fall'
p3532
(lp3533
S'ENVO:01000142'
p3534
asS'fishponds'
p3535
(lp3536
g715
asS'lake channel'
p3537
(lp3538
g2954
ag2954
asS'TERRACE'
p3539
(lp3540
g356
asS'marine reef biome'
p3541
(lp3542
S'ENVO:01000029'
p3543
asS'deepsea'
p3544
(lp3545
g513
asS'ocean time series station'
p3546
(lp3547
S'ENVO:00011764'
p3548
asS'dry river valley'
p3549
(lp3550
S'ENVO:0010163'
p3551
asS'blowout'
p3552
(lp3553
S'ENVO:00000313'
p3554
ag3554
asS'shale'
p3555
(lp3556
S'ENVO:00002056'
p3557
asS'excreta'
p3558
(lp3559
S'ENVO:02000022'
p3560
asS'amd'
p3561
(lp3562
g1830
asS'river valley'
p3563
(lp3564
S'ENVO:00000171'
p3565
asS'midgut'
p3566
(lp3567
g780
asS'marine hydrothermal plume'
p3568
(lp3569
S'ENVO:01000130'
p3570
asS'brackish lake'
p3571
(lp3572
S'ENVO:00000540'
p3573
asS'railroad'
p3574
(lp3575
g3235
ag3235
ag3235
asS'Ojo Caliente'
p3576
(lp3577
S'ID:0000087'
p3578
asS'tundra mire'
p3579
(lp3580
S'ENVO:00000187'
p3581
asS'agricultural soil'
p3582
(lp3583
S'ENVO:00002259'
p3584
asS'retted flax'
p3585
(lp3586
S'ID:0000074'
p3587
asS'clay'
p3588
(lp3589
S'ENVO:00002982'
p3590
asS'salt lake'
p3591
(lp3592
g542
ag542
ag542
ag542
asS'RockGlacier'
p3593
(lp3594
g1736
asS'Kawah Hujan'
p3595
(lp3596
S'ID:0000106'
p3597
asS'salt evaporation pond'
p3598
(lp3599
g986
ag986
asS'stream mouth'
p3600
(lp3601
g2468
ag2468
asS'seawater aquarium'
p3602
(lp3603
g5
asS'natural reserve'
p3604
(lp3605
g1507
asS'landslip'
p3606
(lp3607
g1078
asS'hypogeal habitat'
p3608
(lp3609
g569
asS'nertic littoral zone'
p3610
(lp3611
S'ENVO:01000125'
p3612
asS'mushroom compost'
p3613
(lp3614
S'ENVO:00003033'
p3615
asS'SHOR'
p3616
(lp3617
g2094
asS'ocular flora'
p3618
(lp3619
g1803
asS'underground lake'
p3620
(lp3621
S'ENVO:00000058'
p3622
ag3622
asS'Large river delta biome'
p3623
(lp3624
S'ENVO:00000889'
p3625
asS'crater lake'
p3626
(lp3627
S'ENVO:00000052'
p3628
ag3628
asS'pasture'
p3629
(lp3630
g227
asS'ribbon lake'
p3631
(lp3632
S'ENVO:00000452'
p3633
asS'key (island)'
p3634
(lp3635
g367
asS'undersea hole'
p3636
(lp3637
g519
asS'reindeer dairy product'
p3638
(lp3639
S'ENVO:0010027'
p3640
asS'drop stone'
p3641
(lp3642
S'ENVO:01000136'
p3643
asS'cuspate spit'
p3644
(lp3645
g99
asS'moor'
p3646
(lp3647
g309
ag276
ag128
ag128
ag129
asS'hydrographic feature'
p3648
(lp3649
S'ENVO:00000012'
p3650
ag1333
ag2609
asS'rift valley'
p3651
(lp3652
g78
asS'salt wedge estuary'
p3653
(lp3654
g332
asS'river tributary'
p3655
(lp3656
g1289
asS'toe web space'
p3657
(lp3658
g3492
asS'dejection'
p3659
(lp3660
g282
asS'albeluvisol'
p3661
(lp3662
S'ENVO:00002233'
p3663
asS'Temperate grasslands'
p3664
(lp3665
S'ENVO:00002988'
p3666
asS'shellfish product'
p3667
(lp3668
S'ENVO:02000080'
p3669
asS'plunge pool'
p3670
(lp3671
S'ENVO:00000483'
p3672
asS'eastern boundary current'
p3673
(lp3674
S'ENVO:01000104'
p3675
asS'barrio'
p3676
(lp3677
g1792
asS'beaches'
p3678
(lp3679
g480
asS'plankton'
p3680
(lp3681
S'ID:0000062'
p3682
asS'alluvial fan'
p3683
(lp3684
g1087
aS'ENVO:00000314'
p3685
asS'stream junction'
p3686
(lp3687
g2466
asS'fissure cave'
p3688
(lp3689
S'ENVO:00000263'
p3690
asS'island'
p3691
(lp3692
g367
ag367
ag2003
ag3024
ag3024
aS'ENVO:00000269'
p3693
aS'ENVO:00000419'
p3694
ag1202
asS'hyperthermophilic sediment'
p3695
(lp3696
S'ENVO:01000133'
p3697
asS'biogas digester'
p3698
(lp3699
g1013
asS'aquaculture'
p3700
(lp3701
g672
asS'oceanic epipelagic zone biome'
p3702
(lp3703
S'ENVO:01000035'
p3704
asS'tributary'
p3705
(lp3706
g1289
asS'aquaduct'
p3707
(lp3708
g253
asS'road'
p3709
(lp3710
g16
ag16
ag1265
asS'string bog'
p3711
(lp3712
S'ENVO:00000186'
p3713
asS'beach scarp'
p3714
(lp3715
g1619
asS'Tropical and subtropical grasslands, savannas, and shrubland biome'
p3716
(lp3717
S'ENVO:00000881'
p3718
asS'human-associated habitat'
p3719
(lp3720
S'ENVO:00009003'
p3721
asS'upwelling'
p3722
(lp3723
S'ENVO:01000005'
p3724
asS'wadi'
p3725
(lp3726
g233
ag233
asS'organic material'
p3727
(lp3728
S'ENVO:01000155'
p3729
asS'glacial stream'
p3730
(lp3731
g203
asS'volcanic complex'
p3732
(lp3733
g949
asS'undersea spur'
p3734
(lp3735
g519
asS'oceanic benthopelagic zone biome'
p3736
(lp3737
S'ENVO:01000040'
p3738
asS'palm'
p3739
(lp3740
g794
asS'coast line'
p3741
(lp3742
g1187
asS'crater lakes'
p3743
(lp3744
g3628
asS'Ocean Layer'
p3745
(lp3746
S'ENVO:00000207'
p3747
asS'backwater'
p3748
(lp3749
g309
aS'ENVO:00000472'
p3750
asS'salty soil'
p3751
(lp3752
S'ENVO:00005775'
p3753
asS'reindeer milk'
p3754
(lp3755
S'ENVO:02000015'
p3756
asS'grange'
p3757
(lp3758
g111
asS'marine coral reef buttress zone'
p3759
(lp3760
S'ENVO:01000148'
p3761
asS'raised bog'
p3762
(lp3763
g1257
asS'valley'
p3764
(lp3765
g207
ag207
ag417
ag899
ag1550
ag78
ag1750
ag62
asS're-entrant'
p3766
(lp3767
g207
asS'Prairie Division (250)'
p3768
(lp3769
S'ENVO:00003016'
p3770
asS'Opalinus Clay'
p3771
(lp3772
g2738
asS'uranium contaminated ground water'
p3773
(lp3774
g2900
asS'continental shelf'
p3775
(lp3776
g858
asS'Polar biome'
p3777
(lp3778
S'ENVO:00000894'
p3779
asS'ocean trench'
p3780
(lp3781
S'ENVO:00000275'
p3782
ag3782
asS'fish food product'
p3783
(lp3784
g1019
asS'milk'
p3785
(lp3786
S'ENVO:0010129'
p3787
asS'polluted water'
p3788
(lp3789
S'ENVO:00002186'
p3790
asS'lymph'
p3791
(lp3792
S'ENVO:02000041'
p3793
asS'acrisol'
p3794
(lp3795
S'ENVO:00002234'
p3796
asS'blind gut'
p3797
(lp3798
g2407
asS'chyme'
p3799
(lp3800
S'ENVO:02000026'
p3801
asS'tidal pool'
p3802
(lp3803
S'ENVO:00000317'
p3804
asS'Upflow anaerobic sludge blanket granule'
p3805
(lp3806
g1538
asS'fuel oil'
p3807
(lp3808
S'ENVO:00002983'
p3809
asS'Gouda'
p3810
(lp3811
S'ENVO:00003053'
p3812
asS'intermittent salt lakes'
p3813
(lp3814
g920
asS'Cirque'
p3815
(lp3816
g152
asS'drumlin field'
p3817
(lp3818
S'ENVO:00000431'
p3819
asS'biological clean-up process'
p3820
(lp3821
g3277
asS'rapids'
p3822
(lp3823
g1602
ag1602
ag1602
asS'glacial iceberg'
p3824
(lp3825
g1292
asS'tidewater glacier'
p3826
(lp3827
S'ENVO:00000456'
p3828
asS'deep'
p3829
(lp3830
g3782
ag1414
ag1414
ag1414
asS'tombolo'
p3831
(lp3832
g1202
asS'radioactive waste'
p3833
(lp3834
S'ID:0000127'
p3835
asS'headwaters'
p3836
(lp3837
g2465
asS'Kartchner cavern'
p3838
(lp3839
S'ID:0000094'
p3840
asS'wing dam'
p3841
(lp3842
S'ENVO:00000556'
p3843
asS'HydrothermalVents'
p3844
(lp3845
g887
asS'cream'
p3846
(lp3847
S'ENVO:0010128'
p3848
asS'natural rennet'
p3849
(lp3850
S'ENVO:0010150'
p3851
asS'waste water'
p3852
(lp3853
g1520
asS'chicken breeding waste'
p3854
(lp3855
g2342
asS'agricultural colony'
p3856
(lp3857
g111
asS'slide (natural)'
p3858
(lp3859
g1078
asS'active chimney'
p3860
(lp3861
g428
asS'marine lysocline'
p3862
(lp3863
S'ENVO:01000079'
p3864
asS'hay compost'
p3865
(lp3866
S'ENVO:00002171'
p3867
asS'pomaceous fruit beverage'
p3868
(lp3869
S'ENVO:0010069'
p3870
asS'drainage basin'
p3871
(lp3872
g2465
ag306
ag306
ag279
asS'colon'
p3873
(lp3874
S'ID:0000007'
p3875
aS'ID:0000053'
p3876
asS'cove'
p3877
(lp3878
g338
ag338
asS'shield volcano'
p3879
(lp3880
g3334
asS'marine pockmark'
p3881
(lp3882
S'ENVO:01000160'
p3883
asS'quinoa product'
p3884
(lp3885
S'ENVO:0010104'
p3886
asS'peak'
p3887
(lp3888
g1323
ag1324
ag1324
asS'anse'
p3889
(lp3890
g1865
asS'reef flat'
p3891
(lp3892
g893
asS'building'
p3893
(lp3894
S'ENVO:00000073'
p3895
ag3895
asS'land bridge'
p3896
(lp3897
g1113
aS'ENVO:00000391'
p3898
asS'anaerobic sediment'
p3899
(lp3900
g2861
asS'salina'
p3901
(lp3902
g542
ag1813
asS'canal head reservoir'
p3903
(lp3904
S'ENVO:00000378'
p3905
asS'deep ocean current'
p3906
(lp3907
S'ENVO:01000098'
p3908
asS'landfill'
p3909
(lp3910
g2379
asS'cubital fossa'
p3911
(lp3912
S'ID:0000030'
p3913
asS'non-contaminated site'
p3914
(lp3915
S'ID:0000045'
p3916
asS'epithelial tissue'
p3917
(lp3918
g1260
asS'seafloor'
p3919
(lp3920
S'ENVO:01000024'
p3921
asS'low tide zone'
p3922
(lp3923
g3266
asS'oxbow lake'
p3924
(lp3925
g2789
ag2789
asS'air filter'
p3926
(lp3927
S'ENVO:00003968'
p3928
asS'manmade feature'
p3929
(lp3930
g350
asS'intrusive rock'
p3931
(lp3932
S'ENVO:00002014'
p3933
asS'cinder cone'
p3934
(lp3935
g3333
asS'hypodermic needle'
p3936
(lp3937
S'ENVO:02000000'
p3938
asS'undersea mound'
p3939
(lp3940
g40
asS'periglacial lake'
p3941
(lp3942
S'ENVO:00000200'
p3943
asS'Plateau'
p3944
(lp3945
g1330
asS'settlement'
p3946
(lp3947
g760
asS'highly stratified estuary'
p3948
(lp3949
S'ENVO:00000225'
p3950
asS'marine nutricline'
p3951
(lp3952
S'ENVO:01000078'
p3953
asS'fjords'
p3954
(lp3955
g164
asS'unpasteurized camel milk'
p3956
(lp3957
S'ENVO:02000087'
p3958
asS'coffee-based beverage'
p3959
(lp3960
S'ENVO:0010051'
p3961
asS'oceanic sea surface microlayer biome'
p3962
(lp3963
S'ENVO:01000034'
p3964
asS'solfatara'
p3965
(lp3966
S'ENVO:00000217'
p3967
asS'Gorgonzola'
p3968
(lp3969
S'ENVO:00003055'
p3970
asS'national park'
p3971
(lp3972
S'ENVO:00000367'
p3973
asS'dairy'
p3974
(lp3975
g111
aS'ENVO:00003862'
p3976
asS'bajada'
p3977
(lp3978
S'ENVO:00000315'
p3979
asS'TALUS'
p3980
(lp3981
g1075
asS'crest'
p3982
(lp3983
g488
asS'zoological garden'
p3984
(lp3985
S'ENVO:00010625'
p3986
asS'roadway'
p3987
(lp3988
g16
asS'dry broad beans product'
p3989
(lp3990
S'ENVO:0010110'
p3991
asS'microbial mat material'
p3992
(lp3993
S'ENVO:01000157'
p3994
asS'fan'
p3995
(lp3996
g1087
ag3685
asS'fall'
p3997
(lp3998
g121
asS'tannery'
p3999
(lp4000
S'ENVO:00003323'
p4001
asS'strand'
p4002
(lp4003
g480
ag480
aS'ENVO:00000092'
p4004
ag2309
asS'zebra milk'
p4005
(lp4006
S'ENVO:02000018'
p4007
asS'first-order administrative division'
p4008
(lp4009
g230
asS'trench'
p4010
(lp4011
g207
ag3782
ag1414
asS'blanket bog'
p4012
(lp4013
g309
aS'ENVO:00000511'
p4014
asS'EcosytemType'
p4015
(lp4016
g1633
asS'embayment'
p4017
(lp4018
g644
ag339
asS'chlorinated compound-dechlorinating consortium'
p4019
(lp4020
g639
asS'durisol'
p4021
(lp4022
S'ENVO:00002238'
p4023
asS'brigalow'
p4024
(lp4025
g276
asS'biological product'
p4026
(lp4027
S'ENVO:02000043'
p4028
asS'multipurpose dam'
p4029
(lp4030
S'ENVO:00000553'
p4031
asS'salterns'
p4032
(lp4033
g542
asS'tea'
p4034
(lp4035
S'ENVO:0010158'
p4036
asS'palsa bog'
p4037
(lp4038
g907
asS'rye grass silage'
p4039
(lp4040
S'ENVO:00003900'
p4041
asS'sea foam'
p4042
(lp4043
S'ENVO:00005739'
p4044
asS'sill (physiographic)'
p4045
(lp4046
g416
aS'ENVO:00000539'
p4047
asS'pass'
p4048
(lp4049
g416
ag416
asS'wellwater'
p4050
(lp4051
S'ID:0000060'
p4052
asS'intersection'
p4053
(lp4054
g16
asS'plutonic rock'
p4055
(lp4056
g3933
asS'animal litter'
p4057
(lp4058
S'ENVO:00002191'
p4059
asS'stool'
p4060
(lp4061
g282
asS'research station'
p4062
(lp4063
S'ENVO:00003919'
p4064
asS'canned fruit product'
p4065
(lp4066
S'ENVO:00003890'
p4067
asS'mesopelagic zone'
p4068
(lp4069
S'ENVO:00000213'
p4070
asS'marine streamer'
p4071
(lp4072
S'ENVO:01000068'
p4073
asS'saline water aquarium'
p4074
(lp4075
g3374
asS'ephemeral island'
p4076
(lp4077
S'ENVO:00000368'
p4078
asS'pickled cabbage'
p4079
(lp4080
S'ENVO:00003048'
p4081
asS'dung'
p4082
(lp4083
g282
asS'coastal plain'
p4084
(lp4085
g1186
ag1187
asS'nest of bird'
p4086
(lp4087
S'ENVO:00005805'
p4088
asS'vale'
p4089
(lp4090
g207
asS'polygenetic volcanic field'
p4091
(lp4092
S'ENVO:00000462'
p4093
asS'pass (delta)'
p4094
(lp4095
g1087
asS'oil palm plantation'
p4096
(lp4097
g1800
ag1800
asS'check dam'
p4098
(lp4099
S'ENVO:00000555'
p4100
asS'fish pond'
p4101
(lp4102
g715
asS'awamori'
p4103
(lp4104
S'ENVO:00003880'
p4105
asS'planted forest'
p4106
(lp4107
S'ENVO:00000119'
p4108
asS'chaparal area'
p4109
(lp4110
g129
ag1228
asS'WETLAND'
p4111
(lp4112
g309
asS'second level subdivision'
p4113
(lp4114
g485
asS'rye product'
p4115
(lp4116
S'ENVO:0010102'
p4117
asS'Dam'
p4118
(lp4119
g2843
asS'blue-grass field soil'
p4120
(lp4121
S'ENVO:00005789'
p4122
asS'fringing reef'
p4123
(lp4124
g893
ag893
ag894
ag894
asS'second-order administrative division'
p4125
(lp4126
g485
asS'grain of beach sand'
p4127
(lp4128
S'ENVO:00000345'
p4129
asS'abyssopelagic'
p4130
(lp4131
g513
asS'salicylate enriched soil'
p4132
(lp4133
S'ENVO:00003092'
p4134
asS'badland'
p4135
(lp4136
g2540
asS'infected locus'
p4137
(lp4138
g2159
asS'water well'
p4139
(lp4140
g1033
aS'ENVO:01000002'
p4141
asS'fresh water'
p4142
(lp4143
S'ENVO:00002011'
p4144
asS'volcanic debris'
p4145
(lp4146
S'ID:0000038'
p4147
asS'crater'
p4148
(lp4149
S'ENVO:00000096'
p4150
aS'ENVO:00000246'
p4151
aS'ENVO:00000514'
p4152
asS'freshwater realm'
p4153
(lp4154
g2559
asS'agricultural land'
p4155
(lp4156
g111
asS'dumping ground'
p4157
(lp4158
g149
asS'silva'
p4159
(lp4160
g276
asS'PINNACLE'
p4161
(lp4162
g864
asS'hillock'
p4163
(lp4164
g345
ag59
asS'agricultural terrace'
p4165
(lp4166
S'ENVO:00000519'
p4167
asS'petroleum'
p4168
(lp4169
S'ENVO:00002984'
p4170
asS'abiotic mesoscopic physical object'
p4171
(lp4172
S'ENVO:01000010'
p4173
asS'intermittent pond'
p4174
(lp4175
S'ENVO:00000504'
p4176
ag4176
asS'biotope'
p4177
(lp4178
S'ENVO:00002036'
p4179
asS'biotic mesoscopic physical object'
p4180
(lp4181
S'ENVO:01000009'
p4182
asS'Temperate needle-leaf forests or woodlands'
p4183
(lp4184
S'ENVO:00002992'
p4185
asS'firth'
p4186
(lp4187
g644
ag1865
asS'lake bottom mud'
p4188
(lp4189
S'ENVO:00005797'
p4190
asS'flat'
p4191
(lp4192
g1420
asS'agricultural feature'
p4193
(lp4194
g111
asS'RIDGE'
p4195
(lp4196
g488
asS'Humid Temperate Domain (200)'
p4197
(lp4198
S'ENVO:00003001'
p4199
asS'mire'
p4200
(lp4201
g309
ag309
ag797
asS'MOUNT'
p4202
(lp4203
g59
asS'coral reef'
p4204
(lp4205
g894
ag894
ag894
ag894
asS'petroleum contaminated sediment'
p4206
(lp4207
S'ENVO:00002115'
p4208
asS'deep ocean layer'
p4209
(lp4210
g513
asS'animal habitation'
p4211
(lp4212
S'ENVO:00005803'
p4213
asS'riverbank'
p4214
(lp4215
S'ENVO:00000143'
p4216
asS'marine brine pool'
p4217
(lp4218
S'ENVO:01000060'
p4219
asS'town'
p4220
(lp4221
g2805
asS'anthropogenic abiotic mesoscopic feature'
p4222
(lp4223
S'ENVO:00003075'
p4224
asS'backswamp'
p4225
(lp4226
g309
asS'pocasin'
p4227
(lp4228
S'ENVO:00000239'
p4229
asS'soil sample from uranium milling tailings'
p4230
(lp4231
g852
asS'Talik'
p4232
(lp4233
g2894
asS'TundraEcosystem'
p4234
(lp4235
g2392
asS'pellet'
p4236
(lp4237
g282
asS'hamburger meat'
p4238
(lp4239
g2419
asS'liman'
p4240
(lp4241
S'ENVO:00000453'
p4242
asS'live cave'
p4243
(lp4244
S'ENVO:00000323'
p4245
asS'doline karst'
p4246
(lp4247
S'ENVO:00000336'
p4248
asS'marine coral reef back reef'
p4249
(lp4250
S'ENVO:01000145'
p4251
asS'oilfield'
p4252
(lp4253
S'ENVO:00002185'
p4254
asS'bacterioplankton'
p4255
(lp4256
S'ID:0000063'
p4257
asS'Humid Tropical Domain (400)'
p4258
(lp4259
S'ENVO:00003003'
p4260
asS'fermented fish product'
p4261
(lp4262
S'ENVO:00003874'
p4263
asS'continental island'
p4264
(lp4265
S'ENVO:00000221'
p4266
asS'archipelago'
p4267
(lp4268
g551
asS'kefir'
p4269
(lp4270
S'ENVO:00003973'
p4271
asS'salty'
p4272
(lp4273
S'ID:0000110'
p4274
asS'cell culture'
p4275
(lp4276
S'ENVO:02000008'
p4277
asS'breast milk'
p4278
(lp4279
S'ENVO:02000031'
p4280
asS'Citrullus lanatus fruit'
p4281
(lp4282
S'ENVO:0010066'
p4283
asS'Iceberg'
p4284
(lp4285
g1292
asS'scar'
p4286
(lp4287
g1619
ag864
asS'FUMAROLE'
p4288
(lp4289
g1948
asS'scaw'
p4290
(lp4291
g1619
asS'Floodplain'
p4292
(lp4293
g143
asS'sports facility'
p4294
(lp4295
S'ENVO:00000565'
p4296
asS'sea loch'
p4297
(lp4298
g644
asS'Large river biome'
p4299
(lp4300
S'ENVO:00000887'
p4301
asS'mesophilic sulfur spring'
p4302
(lp4303
S'ENVO:00002128'
p4304
asS'cone (geological)'
p4305
(lp4306
g239
asS'submarine canyon'
p4307
(lp4308
g312
asS'terrestrial biome'
p4309
(lp4310
S'ENVO:00000446'
p4311
asS'disease-related habitat'
p4312
(lp4313
g2159
asS'dry sausage'
p4314
(lp4315
S'ENVO:0010135'
p4316
asS'eads clean room'
p4317
(lp4318
S'ID:0000009'
p4319
asS'subsea feature'
p4320
(lp4321
g519
asS'grain of sea sand'
p4322
(lp4323
S'ENVO:00000347'
p4324
asS'glacial tongue'
p4325
(lp4326
g326
aS'ENVO:00000392'
p4327
asS'wildlife management area'
p4328
(lp4329
S'ENVO:00000374'
p4330
asS'spatter cone'
p4331
(lp4332
S'ENVO:00000401'
p4333
asS'sulphur spring'
p4334
(lp4335
g1163
asS'back-arc basin'
p4336
(lp4337
g1395
asS'Subtropical Division - Mountain Provinces (M230)'
p4338
(lp4339
S'ENVO:00003012'
p4340
asS'blood'
p4341
(lp4342
S'ENVO:02000020'
p4343
asS'anabranch'
p4344
(lp4345
g1484
ag1484
asS'dry lake'
p4346
(lp4347
g2216
asS'pond water'
p4348
(lp4349
S'ENVO:00002228'
p4350
asS'manganese-reducing sediment'
p4351
(lp4352
S'ENVO:01000151'
p4353
asS'oil reservoir'
p4354
(lp4355
g4254
asS'orchard'
p4356
(lp4357
S'ENVO:00000115'
p4358
ag4358
asS'slightly stratified estuary'
p4359
(lp4360
S'ENVO:00000224'
p4361
asS'sandy desert'
p4362
(lp4363
g108
ag108
asS'estuarine bulk water'
p4364
(lp4365
S'ENVO:01000056'
p4366
asS'third-order administrative region'
p4367
(lp4368
g1792
asS'shore'
p4369
(lp4370
g1186
ag663
ag2309
ag2309
aS'ENVO:00000485'
p4371
asS'oceanic pelagic zone biome'
p4372
(lp4373
S'ENVO:01000033'
p4374
asS'fermenting sugar cane juice'
p4375
(lp4376
S'ENVO:00002162'
p4377
asS'turnpike'
p4378
(lp4379
g16
asS'pans'
p4380
(lp4381
g291
asS'miso'
p4382
(lp4383
S'ENVO:00003898'
p4384
asS'allotment garden'
p4385
(lp4386
S'ENVO:00005745'
p4387
asS'ocean basin'
p4388
(lp4389
S'ENVO:00002450'
p4390
asS'reservoir'
p4391
(lp4392
g823
ag823
aS'ENVO:00000506'
p4393
asS'kopje'
p4394
(lp4395
g2933
asS'urine'
p4396
(lp4397
S'ENVO:00002047'
p4398
asS'limestone'
p4399
(lp4400
S'ENVO:00002053'
p4401
asS'dough'
p4402
(lp4403
S'ID:0000037'
p4404
asS'REEF'
p4405
(lp4406
g893
asS'national geopolitical entity'
p4407
(lp4408
g167
asS'SeaFloor'
p4409
(lp4410
g1593
asS'avenue'
p4411
(lp4412
g16
asS'podzol'
p4413
(lp4414
g2200
asS'concentration basin mediterranean sea biome'
p4415
(lp4416
S'ENVO:01000004'
p4417
asS'horse manure'
p4418
(lp4419
S'ENVO:00003859'
p4420
asS'fissure'
p4421
(lp4422
g1007
ag1007
ag1007
ag3366
asS'lateral'
p4423
(lp4424
g1482
asS'umbrisol'
p4425
(lp4426
S'ENVO:00002253'
p4427
asS'biosphere reserve'
p4428
(lp4429
S'ENVO:00000376'
p4430
asS'pickled cruciferous food product'
p4431
(lp4432
S'ENVO:0010094'
p4433
asS'landlocked sea'
p4434
(lp4435
S'ENVO:00000219'
p4436
asS'Temperate Desert Division - Mountain Provinces (M340)'
p4437
(lp4438
S'ENVO:00003022'
p4439
asS'caprine dairy product'
p4440
(lp4441
S'ENVO:0010021'
p4442
asS'crustal biotome'
p4443
(lp4444
g192
asS'mangrove biome'
p4445
(lp4446
S'ENVO:01000021'
p4447
asS'maize product'
p4448
(lp4449
S'ENVO:0010054'
p4450
asS'hot spring'
p4451
(lp4452
g1922
ag1922
asS'ocean floor feature'
p4453
(lp4454
g3105
ag2385
asS'grain of sand'
p4455
(lp4456
S'ENVO:00000340'
p4457
asS'vomit'
p4458
(lp4459
S'ENVO:00000338'
p4460
asS'compound'
p4461
(lp4462
g2967
asS'muskmelon'
p4463
(lp4464
g3186
asS'muskeg'
p4465
(lp4466
g309
ag797
asS'porcine meat product'
p4467
(lp4468
S'ENVO:0010044'
p4469
asS'marine hydrothermal vent'
p4470
(lp4471
S'ENVO:01000122'
p4472
asS'permanent marine thermocline'
p4473
(lp4474
S'ENVO:01000106'
p4475
asS'underground irrigation canal'
p4476
(lp4477
S'ENVO:00000505'
p4478
ag4478
ag4478
asS'processed food product'
p4479
(lp4480
S'ENVO:0010092'
p4481
asS'bone meal'
p4482
(lp4483
S'ENVO:02000054'
p4484
asS'enriched soil'
p4485
(lp4486
S'ENVO:00003082'
p4487
asS'salt ponds'
p4488
(lp4489
g986
asS'PhoticZone'
p4490
(lp4491
g1991
asS'gastrointestinal tract'
p4492
(lp4493
g780
asS'animal house'
p4494
(lp4495
S'ENVO:00003040'
p4496
asS'brackish pond'
p4497
(lp4498
S'ENVO:00000541'
p4499
asS'gum'
p4500
(lp4501
g2291
asS'polygonal karst'
p4502
(lp4503
S'ENVO:00000335'
p4504
asS'alcohol'
p4505
(lp4506
g220
asS'HEADWATER'
p4507
(lp4508
g2465
asS'methane seep'
p4509
(lp4510
S'ENVO:00002063'
p4511
asS'solanaceous food product'
p4512
(lp4513
S'ENVO:0010077'
p4514
asS'marine cold-water sphere'
p4515
(lp4516
S'ENVO:01000108'
p4517
asS'thorn forest'
p4518
(lp4519
g276
asS'Small river biome'
p4520
(lp4521
S'ENVO:00000890'
p4522
asS'beaver dam'
p4523
(lp4524
S'ENVO:00000500'
p4525
asS'underground physiographic feature'
p4526
(lp4527
S'ENVO:00002184'
p4528
asS'anaerobic mud'
p4529
(lp4530
g294
asS'sterile water'
p4531
(lp4532
S'ENVO:00005791'
p4533
asS'hill'
p4534
(lp4535
g345
ag345
ag59
asS'euendolith'
p4536
(lp4537
g841
asS'paternoster lake'
p4538
(lp4539
S'ENVO:00000487'
p4540
asS'brewery'
p4541
(lp4542
S'ENVO:00003885'
p4543
asS'highway'
p4544
(lp4545
g16
ag16
ag16
asS'esker'
p4546
(lp4547
S'ENVO:00000282'
p4548
asS'solonetz'
p4549
(lp4550
S'ENVO:00002255'
p4551
asS'lake bottom'
p4552
(lp4553
g2215
asS'marine biome'
p4554
(lp4555
S'ENVO:00000447'
p4556
asS'lava tunnel'
p4557
(lp4558
S'ENVO:00000110'
p4559
asS'anaerobic bioreactor'
p4560
(lp4561
S'ENVO:00002124'
p4562
asS'orange fruit beverage'
p4563
(lp4564
S'ENVO:0010011'
p4565
asS'lava flow'
p4566
(lp4567
g329
asS'drumlin swarm'
p4568
(lp4569
g3819
asS'dune'
p4570
(lp4571
g74
ag74
asS'sedimentary rock'
p4572
(lp4573
S'ENVO:00002016'
p4574
asS'coastline'
p4575
(lp4576
g1187
ag1187
ag2094
asS'cosmogenous sediment'
p4577
(lp4578
S'ENVO:01000111'
p4579
asS'pup'
p4580
(lp4581
g204
asS'tunnel valley'
p4582
(lp4583
g3343
asS'pus'
p4584
(lp4585
S'ENVO:02000038'
p4586
asS'alpine soil'
p4587
(lp4588
S'ENVO:00005741'
p4589
asS'lake inlet'
p4590
(lp4591
S'ENVO:00000476'
p4592
asS'nitrate-reducing sediment'
p4593
(lp4594
S'ENVO:01000135'
p4595
asS'spinach'
p4596
(lp4597
S'ENVO:02000050'
p4598
asS'pine grove'
p4599
(lp4600
g276
asS'subglacial volcano'
p4601
(lp4602
S'ENVO:00000407'
p4603
asS'aerial habitat'
p4604
(lp4605
S'ENVO:00000568'
p4606
asS'Shoal'
p4607
(lp4608
g99
asS'collected during the ARCHIMEDES 3 cruise with RV Pelagia'
p4609
(lp4610
S'ID:0000093'
p4611
asS'biodegradation'
p4612
(lp4613
S'ID:0000081'
p4614
asS'rock terrace'
p4615
(lp4616
g356
asS'salt water habitat'
p4617
(lp4618
S'ENVO:00002227'
p4619
asS'roadside soil'
p4620
(lp4621
S'ENVO:00005743'
p4622
asS'apron (geological)'
p4623
(lp4624
g2612
asS'wadis'
p4625
(lp4626
g233
asS'spillway'
p4627
(lp4628
g204
ag204
asS'neutral zone'
p4629
(lp4630
g1237
ag1237
asS'shoal'
p4631
(lp4632
g99
ag99
ag99
ag99
asS'ectomycorrhiza'
p4633
(lp4634
g3116
asS'coastal upwelling front'
p4635
(lp4636
S'ENVO:01000090'
p4637
asS'cirque'
p4638
(lp4639
g152
ag152
asS'indeterminate root nodule'
p4640
(lp4641
S'ENVO:01000168'
p4642
asS'animal matter fall'
p4643
(lp4644
S'ENVO:01000139'
p4645
asS'aquatic feature'
p4646
(lp4647
g1333
asS'gastric sample'
p4648
(lp4649
g780
asS'COAST'
p4650
(lp4651
g1187
asS'nature preserve'
p4652
(lp4653
g1507
asS'paisa mire'
p4654
(lp4655
S'ENVO:00000188'
p4656
asS'horst'
p4657
(lp4658
S'ENVO:00000289'
p4659
asS'Delta'
p4660
(lp4661
g1087
asS'stream bend'
p4662
(lp4663
g203
asS'moat'
p4664
(lp4665
g204
ag207
asS'Nye channel'
p4666
(lp4667
S'ENVO:00000437'
p4668
asS'ditch mouth'
p4669
(lp4670
S'ENVO:00000518'
p4671
ag4671
ag4671
asS'meander neck'
p4672
(lp4673
g1077
ag1077
asS'park'
p4674
(lp4675
g3483
aS'ENVO:00000562'
p4676
asS'spice product'
p4677
(lp4678
S'ENVO:0010155'
p4679
asS'kumis'
p4680
(lp4681
S'ID:0000027'
p4682
asS'freshwater lake'
p4683
(lp4684
S'ENVO:00000021'
p4685
asS'man-made tunnel'
p4686
(lp4687
g1016
asS'marine cold seep biome'
p4688
(lp4689
S'ENVO:01000127'
p4690
asS'ice cap'
p4691
(lp4692
g1695
asS'plantar heel'
p4693
(lp4694
g3492
asS'ordure'
p4695
(lp4696
g282
asS'waste water treatment plant'
p4697
(lp4698
g2070
asS'radioactive wastes'
p4699
(lp4700
g3835
ag3835
asS'oil seep'
p4701
(lp4702
g4511
asS'Warm deserts and semideserts'
p4703
(lp4704
S'ENVO:00002998'
p4705
asS'dilution basin mediterranean sea biome'
p4706
(lp4707
S'ENVO:01000128'
p4708
asS'sand dune'
p4709
(lp4710
g74
asS'raw primary sludge'
p4711
(lp4712
S'ENVO:00002057'
p4713
asS'plant root'
p4714
(lp4715
g815
asS'ice peak'
p4716
(lp4717
g1324
asS'red clay'
p4718
(lp4719
S'ENVO:02000045'
p4720
asS'high concentration of salt'
p4721
(lp4722
g880
asS'meadow soil'
p4723
(lp4724
S'ENVO:00005761'
p4725
asS'nuclear waste'
p4726
(lp4727
g3835
asS'Arctic land'
p4728
(lp4729
g2392
asS'Temperate Steppe Division (330)'
p4730
(lp4731
S'ENVO:00003023'
p4732
asS'naphthalene contaminated sediment'
p4733
(lp4734
S'ENVO:00002180'
p4735
asS'gall'
p4736
(lp4737
S'ENVO:02000023'
p4738
asS'saline marsh'
p4739
(lp4740
g2035
asS'high temperature habitat'
p4741
(lp4742
S'ENVO:00002025'
p4743
asS'ramsar site'
p4744
(lp4745
S'ENVO:00000365'
p4746
asS'mountain'
p4747
(lp4748
g344
ag344
ag345
ag59
asS'peat cutting'
p4749
(lp4750
S'ENVO:00000157'
p4751
asS'agricultural region'
p4752
(lp4753
g997
asS'mulga scrub'
p4754
(lp4755
g276
asS'cave'
p4756
(lp4757
g3622
ag2897
ag2897
ag727
asS'along-front current'
p4758
(lp4759
S'ENVO:01000100'
p4760
asS'leafy wood soil'
p4761
(lp4762
S'ENVO:00005783'
p4763
asS'microbial rennet'
p4764
(lp4765
S'ENVO:0010151'
p4766
asS'steppe'
p4767
(lp4768
g1286
asS'fresh smoked sausage'
p4769
(lp4770
S'ENVO:0010133'
p4771
asS'gill'
p4772
(lp4773
S'ID:0000026'
p4774
asS'thruway'
p4775
(lp4776
g16
asS'RAPIDS'
p4777
(lp4778
g1602
asS'intermittent salt lake'
p4779
(lp4780
g920
asS'sugar plantation'
p4781
(lp4782
S'ENVO:00000159'
p4783
ag4783
asS'vinaigrette'
p4784
(lp4785
S'ENVO:0010144'
p4786
asS'reach'
p4787
(lp4788
g204
ag204
ag204
asS'gley soil'
p4789
(lp4790
S'ENVO:00002244'
p4791
asS'confluence'
p4792
(lp4793
g2466
ag2466
ag2466
asS'ileum'
p4794
(lp4795
S'ID:0000031'
p4796
asS'cambisol'
p4797
(lp4798
S'ENVO:00002235'
p4799
asS'phyllosphere'
p4800
(lp4801
S'ID:0000013'
p4802
asS'processed pork'
p4803
(lp4804
S'ENVO:0010154'
p4805
asS'BarrierIsland'
p4806
(lp4807
g367
asS'intermontane plateau'
p4808
(lp4809
g1330
asS'mineral'
p4810
(lp4811
g8
asS'salt-clod'
p4812
(lp4813
g1912
asS'brackish estuary'
p4814
(lp4815
S'ENVO:00002137'
p4816
asS'SnowField'
p4817
(lp4818
g2224
asS'intermittent pool'
p4819
(lp4820
g4176
ag4176
ag4176
asS'notch'
p4821
(lp4822
g2897
ag416
asS'duck meat product'
p4823
(lp4824
S'ENVO:02000069'
p4825
asS'lost watercourse'
p4826
(lp4827
g1459
ag1459
asS'reefs'
p4828
(lp4829
g893
asS'rise (seafloor)'
p4830
(lp4831
g488
asS'mine site'
p4832
(lp4833
g971
ag971
ag972
ag533
asS'administrative area'
p4834
(lp4835
S'ENVO:00000135'
p4836
asS'extreme high temperature habitat'
p4837
(lp4838
S'ENVO:00002027'
p4839
asS"Pont l'Eveque"
p4840
(lp4841
S'ENVO:00003060'
p4842
asS'compost biofilter'
p4843
(lp4844
S'ENVO:00002153'
p4845
asS'Temperate broadleaf and mixed forest biome'
p4846
(lp4847
S'ENVO:00000876'
p4848
asS'CRATER'
p4849
(lp4850
g4152
asS'unpasteurized milk product'
p4851
(lp4852
g2054
asS'emulsion'
p4853
(lp4854
S'ENVO:00010506'
p4855
asS'undersea moat'
p4856
(lp4857
g519
asS'sea water'
p4858
(lp4859
S'ENVO:00002149'
p4860
asS'peanut plant'
p4861
(lp4862
S'ENVO:02000075'
p4863
asS'animal microbiome'
p4864
(lp4865
S'ID:0000000'
p4866
asS'Dune'
p4867
(lp4868
g74
asS'sulphate-reducing sediment'
p4869
(lp4870
S'ENVO:01000153'
p4871
asS'ice core'
p4872
(lp4873
g1696
asS'swamp forest'
p4874
(lp4875
g309
asS'uranium contaminated soil'
p4876
(lp4877
S'ID:0000133'
p4878
asS'Bailey biome'
p4879
(lp4880
S'ENVO:00002999'
p4881
asS'moatan'
p4882
(lp4883
S'ENVO:00000536'
p4884
ag4884
asS'saline water habitat'
p4885
(lp4886
g4619
asS'beach ridge'
p4887
(lp4888
g488
ag488
aS'ENVO:00000529'
p4889
ag4889
asS'tablemount (seafloor)'
p4890
(lp4891
g1441
asS'silt'
p4892
(lp4893
S'ENVO:01000016'
p4894
asS'lost stream'
p4895
(lp4896
g1459
asS'dry beans product'
p4897
(lp4898
S'ENVO:0010113'
p4899
asS'peat cutting area'
p4900
(lp4901
g309
ag4751
ag4751
asS'biopsy'
p4902
(lp4903
g183
asS'saline hydrographic feature'
p4904
(lp4905
S'ENVO:00000017'
p4906
asS'picoplankton'
p4907
(lp4908
S'ID:0000066'
p4909
asS'fermented soybean product'
p4910
(lp4911
S'ENVO:00003915'
p4912
asS'potato product'
p4913
(lp4914
S'ENVO:0010060'
p4915
asS'biofilter'
p4916
(lp4917
S'ENVO:00002152'
p4918
asS'offshore bar'
p4919
(lp4920
g99
asS'mountain spur'
p4921
(lp4922
S'ENVO:00000390'
p4923
asS'insecta-associated habitat'
p4924
(lp4925
S'ENVO:00009004'
p4926
asS'sill'
p4927
(lp4928
g4047
ag4047
ag4047
asS'GAC filter'
p4929
(lp4930
S'ID:0000072'
p4931
asS'CLEARING'
p4932
(lp4933
g1786
asS'accessway'
p4934
(lp4935
g16
asS'CAVE'
p4936
(lp4937
g2897
asS'cheese starter culture'
p4938
(lp4939
S'ENVO:00002219'
p4940
asS'alkaline habitat'
p4941
(lp4942
S'ENVO:00002022'
p4943
asS'intermittent reservoir'
p4944
(lp4945
g4393
ag4393
asS'river'
p4946
(lp4947
g2587
asS'supranational geopolitical entity'
p4948
(lp4949
S'ENVO:00000124'
p4950
asS'animal feed'
p4951
(lp4952
S'ENVO:02000047'
p4953
asS'Glacier'
p4954
(lp4955
g1736
asS'cecal sample'
p4956
(lp4957
g2407
asS'marine cliff'
p4958
(lp4959
S'ENVO:00000088'
p4960
asS'ice core sample'
p4961
(lp4962
g1696
asS'SHORE'
p4963
(lp4964
g2309
asS'subsea floor sediment'
p4965
(lp4966
g3288
asS'sea'
p4967
(lp4968
g507
ag65
ag65
ag65
asS'sphagnum bog'
p4969
(lp4970
S'ENVO:00002268'
p4971
asS'Temperate Steppe Division - Mountain Provinces (M330)'
p4972
(lp4973
S'ENVO:00003024'
p4974
asS'hydrogenous sediment'
p4975
(lp4976
S'ENVO:01000110'
p4977
asS'arm'
p4978
(lp4979
g1865
asS'barn'
p4980
(lp4981
g111
asS'closed basin'
p4982
(lp4983
g1544
asS'agricultural facility'
p4984
(lp4985
g111
asS'aqueduct'
p4986
(lp4987
g253
ag253
ag253
asS'solonchak'
p4988
(lp4989
S'ENVO:00002252'
p4990
asS'brine lake'
p4991
(lp4992
S'ENVO:00000369'
p4993
asS'plain, coast'
p4994
(lp4995
g1186
asS'vadoze zone'
p4996
(lp4997
S'ENVO:00000328'
p4998
asS'horse milk'
p4999
(lp5000
S'ENVO:02000014'
p5001
asS'icecap reach'
p5002
(lp5003
S'ENVO:00000528'
p5004
asS'HOT station ALOHA'
p5005
(lp5006
g1277
asS'seachannel (seafloor)'
p5007
(lp5008
g847
asS'gimchi'
p5009
(lp5010
g2150
asS'Piburger'
p5011
(lp5012
g1225
asS'island group'
p5013
(lp5014
g551
asS'carious dentine'
p5015
(lp5016
S'ID:0000025'
p5017
asS'drilling bore water'
p5018
(lp5019
S'ENVO:00002159'
p5020
asS'stream valley'
p5021
(lp5022
g13
asS'drinking water'
p5023
(lp5024
S'ENVO:00003064'
p5025
asS'Emmenthal'
p5026
(lp5027
S'ENVO:00003057'
p5028
asS'foothill'
p5029
(lp5030
g344
ag344
ag345
ag345
asS'lacustrine beach'
p5031
(lp5032
S'ENVO:00000093'
p5033
asS'underground water'
p5034
(lp5035
g195
asS'barrier flat'
p5036
(lp5037
g309
asS'agricultural site'
p5038
(lp5039
g111
ag112
ag3005
ag4358
ag2360
ag627
ag1800
ag4783
aS'ENVO:00000160'
p5040
ag3232
ag2243
aS'ENVO:00000164'
p5041
ag227
ag2128
ag3307
asS'fungus-associated habitat'
p5042
(lp5043
S'ID:0000116'
p5044
asS'sputum'
p5045
(lp5046
g1438
asS'coal mine waste'
p5047
(lp5048
g1903
asS'reach (hydrographic)'
p5049
(lp5050
g847
asS'organism-associated habitat'
p5051
(lp5052
S'ENVO:00002032'
p5053
asS'endorheic lake'
p5054
(lp5055
S'ENVO:00000197'
p5056
asS'landform'
p5057
(lp5058
g1074
asS'alluvial swamp soil'
p5059
(lp5060
S'ENVO:00005758'
p5061
asS'limed soil'
p5062
(lp5063
S'ENVO:00005766'
p5064
asS'sea vent'
p5065
(lp5066
g428
asS'saline evaporation pond'
p5067
(lp5068
g986
asS'yam bean product'
p5069
(lp5070
S'ENVO:0010116'
p5071
asS'guts'
p5072
(lp5073
g780
asS'BRIDGE'
p5074
(lp5075
g19
asS'chymus'
p5076
(lp5077
g3801
asS'loam'
p5078
(lp5079
S'ENVO:00002258'
p5080
asS'grazing allotment'
p5081
(lp5082
g111
asS'Tropical dry or deciduous forests (including Monsoon forests) or woodlands'
p5083
(lp5084
S'ENVO:00002990'
p5085
asS'third level subdivision'
p5086
(lp5087
g1792
asS'village'
p5088
(lp5089
g2805
ag2805
asS'sea cliff'
p5090
(lp5091
g4960
asS'Takashikozo'
p5092
(lp5093
S'ID:0000108'
p5094
asS'Urania basin'
p5095
(lp5096
g4993
asS'acifified beer wort'
p5097
(lp5098
S'ENVO:00003039'
p5099
asS'lava plain'
p5100
(lp5101
g329
asS'rubber plantation'
p5102
(lp5103
g5041
ag5041
asS'Temperate broad-leaf forests or woodlands and subpolar deciduous thickets'
p5104
(lp5105
S'ENVO:00002989'
p5106
asS'outflow cave'
p5107
(lp5108
S'ENVO:00000324'
p5109
asS'pelagic isohaline surface'
p5110
(lp5111
S'ENVO:01000081'
p5112
asS'buttermilk'
p5113
(lp5114
S'ENVO:00003889'
p5115
asS'irrigation system'
p5116
(lp5117
g1482
asS'underground stream'
p5118
(lp5119
S'ENVO:00000060'
p5120
asS'archeological site'
p5121
(lp5122
S'ENVO:00000564'
p5123
asS'Littoral'
p5124
(lp5125
g1187
asS'subtropical convergence front'
p5126
(lp5127
S'ENVO:01000094'
p5128
asS'marine pelagic feature'
p5129
(lp5130
S'ENVO:01000044'
p5131
asS'humus'
p5132
(lp5133
S'ENVO:01000000'
p5134
asS'SubmarineCanyon'
p5135
(lp5136
g312
asS'Evergreen sclerophyllous forests, scrub, or woodlands'
p5137
(lp5138
S'ENVO:00002987'
p5139
asS'vinegar'
p5140
(lp5141
S'ENVO:00003905'
p5142
asS"sheep's milk cheese"
p5143
(lp5144
S'ENVO:0010042'
p5145
asS'coastal area'
p5146
(lp5147
g1187
asS'gap'
p5148
(lp5149
g416
ag416
ag417
ag4047
asS'bight'
p5150
(lp5151
g644
ag644
ag1865
asS'goose meat product'
p5152
(lp5153
S'ENVO:02000070'
p5154
asS'antecubital fossa'
p5155
(lp5156
g3913
asS'drainage canal'
p5157
(lp5158
S'ENVO:00000042'
p5159
ag5159
ag5159
asS'land-tied island'
p5160
(lp5161
g3693
ag3693
asS'contamination feature'
p5162
(lp5163
g2543
asS'bile'
p5164
(lp5165
g4738
asS'bambara groundnut product'
p5166
(lp5167
S'ENVO:0010109'
p5168
asS'epeiric sea biome'
p5169
(lp5170
S'ENVO:01000045'
p5171
asS'undersea ramp'
p5172
(lp5173
g519
asS'EstuarineWetland'
p5174
(lp5175
g309
asS'oil contaminated soil'
p5176
(lp5177
S'ENVO:00002875'
p5178
asS'honey product'
p5179
(lp5180
S'ENVO:0010090'
p5181
asS'medical instrument'
p5182
(lp5183
S'ENVO:00010621'
p5184
asS'MangroveForest'
p5185
(lp5186
g654
asS'camelid dairy product'
p5187
(lp5188
S'ENVO:0010018'
p5189
asS'aphotic'
p5190
(lp5191
g513
asS'sheepfold'
p5192
(lp5193
g111
asS'outlet glacier'
p5194
(lp5195
S'ENVO:00000459'
p5196
asS'awawa'
p5197
(lp5198
g204
asS'runnel'
p5199
(lp5200
g204
asS'glacial lake'
p5201
(lp5202
S'ENVO:00000488'
p5203
asS'space center'
p5204
(lp5205
S'ID:0000015'
p5206
aS'ID:0000015'
p5207
asS'mudflat'
p5208
(lp5209
S'ENVO:00000192'
p5210
asS'alluvial soil'
p5211
(lp5212
S'ENVO:00002871'
p5213
asS'tidal flat'
p5214
(lp5215
g2250
ag2250
ag2250
asS'water scum'
p5216
(lp5217
S'ENVO:00005794'
p5218
asS'glacial feature'
p5219
(lp5220
g87
ag1736
asS'rio'
p5221
(lp5222
g2587
ag2587
asS'cultivated habitat'
p5223
(lp5224
g997
asS'mott'
p5225
(lp5226
g276
asS'chasm'
p5227
(lp5228
g207
ag417
asS'ria'
p5229
(lp5230
g1750
ag1865
asS'farmstead'
p5231
(lp5232
g112
asS'overflow channel'
p5233
(lp5234
g204
asS'maize flour'
p5235
(lp5236
S'ENVO:00003977'
p5237
asS'ground moraine'
p5238
(lp5239
S'ENVO:00000251'
p5240
asS'textile'
p5241
(lp5242
S'ENVO:02000001'
p5243
asS'steppe soil'
p5244
(lp5245
S'ENVO:00005777'
p5246
asS'contaminated animal feed'
p5247
(lp5248
S'ENVO:02000048'
p5249
asS'lateral moraine'
p5250
(lp5251
g2336
asS'metamorphic rock'
p5252
(lp5253
S'ENVO:00002017'
p5254
asS'soda lake sediment'
p5255
(lp5256
g749
asS'anal swab'
p5257
(lp5258
S'ID:0000018'
p5259
asS'coastal cliff'
p5260
(lp5261
g4960
asS'blowhole'
p5262
(lp5263
S'ENVO:00000168'
p5264
ag5264
asS'marine ultramafic hydrothermal vent biome'
p5265
(lp5266
S'ENVO:01000053'
p5267
asS'geological feature'
p5268
(lp5269
g1074
asS'ice tongue'
p5270
(lp5271
g4327
asS'Shoreline'
p5272
(lp5273
g2094
asS'alcoholic beverage'
p5274
(lp5275
g611
asS'stack'
p5276
(lp5277
g3694
asS'culvert'
p5278
(lp5279
g204
asS'adminstrative area'
p5280
(lp5281
g1237
asS'marine reef'
p5282
(lp5283
S'ENVO:01000143'
p5284
asS'fermented grape beverage'
p5285
(lp5286
S'ENVO:0010006'
p5287
asS'salt pan'
p5288
(lp5289
g22
asS'borderland (continental margin)'
p5290
(lp5291
g858
asS'stents'
p5292
(lp5293
g1650
asS'caldera lake'
p5294
(lp5295
g3628
asS'Marine Division (240)'
p5296
(lp5297
S'ENVO:00003014'
p5298
asS'riffle'
p5299
(lp5300
S'ENVO:00000148'
p5301
asS'Deserts and xeric shrubland biome'
p5302
(lp5303
S'ENVO:00000883'
p5304
asS'coconut plantation'
p5305
(lp5306
g941
asS'floeberg'
p5307
(lp5308
g1292
asS'burned soil'
p5309
(lp5310
g1341
asS'botanic garden'
p5311
(lp5312
g3138
asS'hypolimnion'
p5313
(lp5314
S'ENVO:00002130'
p5315
asS'lagoon beach'
p5316
(lp5317
g480
asS'bay delta'
p5318
(lp5319
g1087
asS'indeterminate root nodule nitrogen fixation zone'
p5320
(lp5321
S'ENVO:01000171'
p5322
asS'alkaline hot spring'
p5323
(lp5324
S'ENVO:00002119'
p5325
asS'Marsh'
p5326
(lp5327
g3403
asS'marine coral reef flat zone'
p5328
(lp5329
S'ENVO:01000144'
p5330
asS'GRASSLAND'
p5331
(lp5332
g226
asS'boroll'
p5333
(lp5334
g1134
asS'pyroclastic material'
p5335
(lp5336
g4147
asS'orchard soil'
p5337
(lp5338
S'ENVO:00005772'
p5339
asS'fermented apple beverage'
p5340
(lp5341
S'ENVO:0010009'
p5342
asS'REVETMENT'
p5343
(lp5344
g443
asS'cut'
p5345
(lp5346
S'ENVO:00000474'
p5347
asS'minced beef'
p5348
(lp5349
g2419
asS'offshore platform'
p5350
(lp5351
S'ENVO:00000099'
p5352
asS'undersea cordillera'
p5353
(lp5354
g579
asS'Temperate upwelling biome'
p5355
(lp5356
S'ENVO:00000896'
p5357
asS'source'
p5358
(lp5359
g2465
asS'plateau'
p5360
(lp5361
g528
ag1330
ag1330
ag1441
ag3260
asS'intermittent water body'
p5362
(lp5363
g2303
asS'fecal sample'
p5364
(lp5365
g282
asS'guyot'
p5366
(lp5367
g1441
asS'bore hole water'
p5368
(lp5369
S'ENVO:00003097'
p5370
asS'wheat product'
p5371
(lp5372
S'ENVO:0010053'
p5373
asS'acid habitat'
p5374
(lp5375
S'ENVO:00002021'
p5376
asS'deep layer'
p5377
(lp5378
g513
asS'suffering'
p5379
(lp5380
g2159
asS'mesophilic sediment'
p5381
(lp5382
S'ENVO:01000131'
p5383
asS'infected organ'
p5384
(lp5385
g2159
asS'amniotic fluid'
p5386
(lp5387
S'ENVO:02000021'
p5388
asS'Creek'
p5389
(lp5390
g203
asS'ponds'
p5391
(lp5392
g2478
asS'monogenetic volcanic field'
p5393
(lp5394
S'ENVO:00000355'
p5395
asS'polar ice pack'
p5396
(lp5397
g326
asS'fermentation related site'
p5398
(lp5399
S'ID:0000042'
p5400
asS'seashore'
p5401
(lp5402
g2309
asS'bamboo'
p5403
(lp5404
g276
asS'dirt cone'
p5405
(lp5406
S'ENVO:00000430'
p5407
asS'valleys'
p5408
(lp5409
g207
asS'stream bed'
p5410
(lp5411
g1444
ag1444
asS'spring'
p5412
(lp5413
g966
ag966
ag1922
ag1162
asS'borax leachate'
p5414
(lp5415
S'ENVO:00002142'
p5416
asS'Tundra biome'
p5417
(lp5418
S'ENVO:00000874'
p5419
asS'pingo'
p5420
(lp5421
g2085
asS'drowned river valley'
p5422
(lp5423
g1750
asS'clean room'
p5424
(lp5425
S'ID:0000008'
p5426
asS'hedgerow'
p5427
(lp5428
g1930
asS'andosol'
p5429
(lp5430
S'ENVO:00002232'
p5431
asS'oil field'
p5432
(lp5433
g4254
asS'shoal patches'
p5434
(lp5435
g99
asS'populated places'
p5436
(lp5437
g760
asS'table mountain'
p5438
(lp5439
g1330
asS'pond bottom'
p5440
(lp5441
g2450
asS'salt contaminated soil'
p5442
(lp5443
g3753
asS'neritic pelagic zone biome'
p5444
(lp5445
S'ENVO:01000032'
p5446
asS'tidal mixing front'
p5447
(lp5448
S'ENVO:01000087'
p5449
asS'anaerobic dechlorinating bioreactor'
p5450
(lp5451
S'ENVO:00002125'
p5452
asS'shelves, continental'
p5453
(lp5454
g858
asS'slash'
p5455
(lp5456
g309
asS'marine habitat'
p5457
(lp5458
S'ENVO:00000569'
p5459
asS'farm soil'
p5460
(lp5461
S'ENVO:00005749'
p5462
asS'nodule'
p5463
(lp5464
g493
asS'patient'
p5465
(lp5466
S'ID:0000057'
p5467
asS'ferralsol'
p5468
(lp5469
S'ENVO:00002246'
p5470
asS'IslandArc'
p5471
(lp5472
g367
ag551
asS'chicken meat product'
p5473
(lp5474
S'ENVO:00003066'
p5475
asS'lakes'
p5476
(lp5477
g709
asS'wadi junction'
p5478
(lp5479
g233
asS'endolithic habitat'
p5480
(lp5481
S'ENVO:00000886'
p5482
asS'tunnel-vale'
p5483
(lp5484
g3343
asS'paddy field soil'
p5485
(lp5486
g2264
asS'river bed'
p5487
(lp5488
g1485
asS'dolomite'
p5489
(lp5490
S'ENVO:00010623'
p5491
asS'pyroclastic shield volcano'
p5492
(lp5493
g1960
asS'sea grass bed'
p5494
(lp5495
S'ENVO:01000059'
p5496
asS'treated wood'
p5497
(lp5498
S'ENVO:00002135'
p5499
asS'Seamount'
p5500
(lp5501
g40
asS'rumen'
p5502
(lp5503
g177
asS'biosolids'
p5504
(lp5505
S'ENVO:00002059'
p5506
asS'oceanic island'
p5507
(lp5508
g1462
asS'subseafloor sediment'
p5509
(lp5510
g3288
asS'range'
p5511
(lp5512
g226
ag997
asS'open sound'
p5513
(lp5514
g65
ag1373
asS'Pond'
p5515
(lp5516
g2478
asS'glacial gorge'
p5517
(lp5518
g207
asS'WWF biome'
p5519
(lp5520
S'ENVO:00002038'
p5521
asS'mulga'
p5522
(lp5523
g276
asS'cutoff'
p5524
(lp5525
g449
asS'maelstrom'
p5526
(lp5527
S'ENVO:00000442'
p5528
asS'animal lipid food product'
p5529
(lp5530
S'ENVO:0010156'
p5531
asS'lava cone'
p5532
(lp5533
g239
asS'canal bend'
p5534
(lp5535
g1482
asS'undersea mountain chain'
p5536
(lp5537
g579
asS'horse dairy product'
p5538
(lp5539
S'ENVO:0010029'
p5540
asS'artificial reef'
p5541
(lp5542
S'ENVO:00000149'
p5543
asS'alisol'
p5544
(lp5545
S'ENVO:00002231'
p5546
asS'poly-beta-hydroxybutyrate enriched soil'
p5547
(lp5548
S'ENVO:00003093'
p5549
asS'canal'
p5550
(lp5551
g1482
ag1482
ag1110
ag757
ag5159
ag1483
aS'ENVO:00000139'
p5552
ag2575
ag4671
ag2091
asS'freshwater habitat'
p5553
(lp5554
S'ENVO:00002037'
p5555
asS'marine electroactive biofilm'
p5556
(lp5557
S'ID:0000112'
p5558
asS'mesotrophic water'
p5559
(lp5560
S'ENVO:00002225'
p5561
asS'outwash'
p5562
(lp5563
g1087
asS'trimethylamine enriched soil'
p5564
(lp5565
S'ENVO:00003084'
p5566
asS'infected area'
p5567
(lp5568
g2159
asS'high pressure habitat'
p5569
(lp5570
S'ENVO:00002023'
p5571
asS'SedimentLayer'
p5572
(lp5573
g738
asS'secondary sludge'
p5574
(lp5575
S'ENVO:00002058'
p5576
asS'mountains'
p5577
(lp5578
g344
asS'sawah soil'
p5579
(lp5580
S'ENVO:00005752'
p5581
asS'constructed feature'
p5582
(lp5583
S'ENVO:00000070'
p5584
asS'open water'
p5585
(lp5586
g65
asS'piece of gravel'
p5587
(lp5588
S'ENVO:00000341'
p5589
asS'POLYNA'
p5590
(lp5591
g890
asS'well-water'
p5592
(lp5593
g4052
asS'linn'
p5594
(lp5595
g121
asS'olive grove'
p5596
(lp5597
g3062
ag3062
asS'IceSheet'
p5598
(lp5599
g1696
asS'delta'
p5600
(lp5601
g1087
ag1087
ag3685
asS'fruit preserve'
p5602
(lp5603
S'ENVO:0010138'
p5604
asS'RAILWAY'
p5605
(lp5606
g3235
asS'railroad tunnel'
p5607
(lp5608
g1016
ag1016
asS'rhizosphere'
p5609
(lp5610
g815
asS'produced water from Troll'
p5611
(lp5612
g1674
asS'raw oil'
p5613
(lp5614
g3425
ag3426
asS'anthropogenic environmental material'
p5615
(lp5616
S'ENVO:0010001'
p5617
asS'yoghurt'
p5618
(lp5619
g236
asS'ContinentalMargin'
p5620
(lp5621
g858
asS'desert sand'
p5622
(lp5623
S'ENVO:00005800'
p5624
asS'grove'
p5625
(lp5626
g276
ag276
ag387
asS'Wetland'
p5627
(lp5628
g309
asS'processed cheese product'
p5629
(lp5630
S'ENVO:0010141'
p5631
asS'rice paddy'
p5632
(lp5633
g3307
asS'talus slope'
p5634
(lp5635
g1075
ag1075
asS'Brie'
p5636
(lp5637
S'ENVO:00003052'
p5638
asS'Liquor cerebrospinalis'
p5639
(lp5640
g1775
asS'undersea sill'
p5641
(lp5642
g519
asS'Ice'
p5643
(lp5644
g87
asS'sagebrush'
p5645
(lp5646
g276
asS'cut line'
p5647
(lp5648
g1786
asS'bovine dairy product'
p5649
(lp5650
S'ENVO:0010019'
p5651
asS'animal derived beverage'
p5652
(lp5653
S'ENVO:0010168'
p5654
asS'big clearing'
p5655
(lp5656
g890
asS'pickles'
p5657
(lp5658
g2757
asS'stratovolcano'
p5659
(lp5660
S'ENVO:00000404'
p5661
asS'tarn'
p5662
(lp5663
g3486
asS'marine bulk water'
p5664
(lp5665
S'ENVO:01000055'
p5666
asS'swamp'
p5667
(lp5668
g3156
ag3156
asS'undersea feature'
p5669
(lp5670
g519
asS'ship cannal'
p5671
(lp5672
g410
asS'stagnosol'
p5673
(lp5674
S'ENVO:00002274'
p5675
asS'WELL'
p5676
(lp5677
g1033
asS'fresh  sea water fish'
p5678
(lp5679
S'ENVO:0010149'
p5680
asS'tufa'
p5681
(lp5682
S'ID:0000118'
p5683
asS'points'
p5684
(lp5685
g835
asS'faeces'
p5686
(lp5687
g282
asS'food shop'
p5688
(lp5689
S'ENVO:00002222'
p5690
asS'scraps'
p5691
(lp5692
g1619
asS'grape fruit product'
p5693
(lp5694
S'ENVO:0010082'
p5695
asS'mayonnaise'
p5696
(lp5697
S'ENVO:0010147'
p5698
asS'manured soil'
p5699
(lp5700
S'ENVO:00005767'
p5701
asS'trough (seafloor)'
p5702
(lp5703
g1414
asS'dale'
p5704
(lp5705
g207
asS'draw'
p5706
(lp5707
g204
asS'ecosystem'
p5708
(lp5709
g1633
asS'scrub'
p5710
(lp5711
g276
ag129
asS'mustard'
p5712
(lp5713
S'ENVO:0010142'
p5714
asS'bedclothing'
p5715
(lp5716
S'ENVO:02000002'
p5717
asS'acid dune sand'
p5718
(lp5719
S'ENVO:00005798'
p5720
asS'plume front'
p5721
(lp5722
S'ENVO:01000085'
p5723
asS'syngenetic karst'
p5724
(lp5725
S'ENVO:00000334'
p5726
asS'caldera'
p5727
(lp5728
g4150
ag4150
ag4152
asS'desert'
p5729
(lp5730
g735
ag735
ag108
ag2051
aS'ENVO:00000183'
p5731
ag3979
asS'hypocotyl'
p5732
(lp5733
g3415
asS'monadnock'
p5734
(lp5735
g2933
ag59
asS'BUILDING'
p5736
(lp5737
g3895
asS'clay sediment'
p5738
(lp5739
S'ENVO:01000120'
p5740
asS'lane'
p5741
(lp5742
g16
asS'CoastalRegion'
p5743
(lp5744
g1187
asS'cave system'
p5745
(lp5746
S'ENVO:00000013'
p5747
asS'grape extract'
p5748
(lp5749
S'ENVO:0010074'
p5750
asS'ephemeral spring'
p5751
(lp5752
S'ENVO:00000204'
p5753
asS'heath'
p5754
(lp5755
g127
ag127
ag129
asS'undersea pinnacle'
p5756
(lp5757
g519
asS'RiftValley'
p5758
(lp5759
g78
asS'summit'
p5760
(lp5761
g1324
ag1324
asS'graben'
p5762
(lp5763
g207
ag1968
asS'aphotic zone'
p5764
(lp5765
g2147
asS'colonial'
p5766
(lp5767
g3875
asS'peat cut'
p5768
(lp5769
g4751
asS'marine bench'
p5770
(lp5771
g504
asS'ovine milk'
p5772
(lp5773
g93
asS'Tropical and subtropical coniferous forest biome'
p5774
(lp5775
S'ENVO:00005806'
p5776
asS'mine drainage'
p5777
(lp5778
S'ENVO:00001996'
p5779
asS'farms'
p5780
(lp5781
g112
asS'frozen compost soil'
p5782
(lp5783
S'ENVO:00005765'
p5784
asS'commercial yogurt'
p5785
(lp5786
S'ENVO:00002218'
p5787
asS'marine realm'
p5788
(lp5789
g4556
asS'vegetable garden soil'
p5790
(lp5791
S'ENVO:00005779'
p5792
asS'anoxic water'
p5793
(lp5794
S'ENVO:01000173'
p5795
asS'aquarium'
p5796
(lp5797
S'ENVO:00002196'
p5798
asS'caprine cheese product'
p5799
(lp5800
S'ENVO:0010036'
p5801
asS'submerged reef'
p5802
(lp5803
g893
asS'Camembert'
p5804
(lp5805
S'ENVO:00003049'
p5806
asS'Catchment'
p5807
(lp5808
g306
asS'compost'
p5809
(lp5810
S'ENVO:00002170'
p5811
asS'mountain summit'
p5812
(lp5813
g1323
ag1324
asS'marine sponge reef'
p5814
(lp5815
S'ENVO:01000161'
p5816
asS'gravel'
p5817
(lp5818
S'ENVO:01000018'
p5819
asS'podsol'
p5820
(lp5821
g2200
asS'phreatic zone'
p5822
(lp5823
S'ENVO:00000329'
p5824
asS'oceanic zone'
p5825
(lp5826
g3747
asS'garden'
p5827
(lp5828
g3483
ag3483
asS'longshore bar'
p5829
(lp5830
g99
asS'dessert'
p5831
(lp5832
S'ENVO:02000062'
p5833
asS'maar'
p5834
(lp5835
S'ENVO:00000245'
p5836
asS'seaway'
p5837
(lp5838
g204
asS'trough'
p5839
(lp5840
g1414
ag1535
asS'Lagoon'
p5841
(lp5842
g566
asS'coastal water body'
p5843
(lp5844
S'ENVO:02000049'
p5845
asS'pyroclastic cone'
p5846
(lp5847
S'ENVO:00000356'
p5848
asS'site of special scientific interest'
p5849
(lp5850
g1060
asS'dike (manmade)'
p5851
(lp5852
g443
asS'IntertidalZone'
p5853
(lp5854
g2125
asS'karst field'
p5855
(lp5856
S'ENVO:00004683'
p5857
asS'undersea terrace'
p5858
(lp5859
g519
asS'harbor'
p5860
(lp5861
S'ENVO:00000463'
p5862
asS'environmental feature'
p5863
(lp5864
S'ENVO:00002297'
p5865
asS'neritic supra-littoral zone'
p5866
(lp5867
S'ENVO:01000124'
p5868
asS'national wildlife refuge'
p5869
(lp5870
S'ENVO:00000364'
p5871
asS'leptosol'
p5872
(lp5873
S'ENVO:00002241'
p5874
asS'irrigated field'
p5875
(lp5876
g111
asS'race'
p5877
(lp5878
g204
asS'pebble'
p5879
(lp5880
S'ENVO:00002139'
p5881
asS'flume (manmade)'
p5882
(lp5883
g1483
asS'sewage'
p5884
(lp5885
S'ENVO:00002018'
p5886
asS'apple cider'
p5887
(lp5888
S'ENVO:02000060'
p5889
asS'carter'
p5890
(lp5891
g4152
asS'ground water'
p5892
(lp5893
g763
aS'ENVO:00002041'
p5894
asS'veld'
p5895
(lp5896
g263
asS'aquifer'
p5897
(lp5898
S'ENVO:00012408'
p5899
asS'Swiss cheese'
p5900
(lp5901
S'ENVO:00003056'
p5902
asS'spur (physiographic)'
p5903
(lp5904
g488
asS'sand bar'
p5905
(lp5906
g99
asS'depression'
p5907
(lp5908
g291
ag291
asS'toxic chemical'
p5909
(lp5910
g472
asS'sausage'
p5911
(lp5912
S'ENVO:00002166'
p5913
asS'sauerkraut'
p5914
(lp5915
S'ID:0000036'
p5916
asS'cordillera'
p5917
(lp5918
g317
ag344
ag579
asS'stony meteorite'
p5919
(lp5920
S'ENVO:00002049'
p5921
asS'playa'
p5922
(lp5923
g1813
asS'eyot'
p5924
(lp5925
g367
ag783
asS'fiord'
p5926
(lp5927
g164
ag164
asS'sediment contaminated with radionuclide'
p5928
(lp5929
g597
asS'seal fall'
p5930
(lp5931
S'ENVO:01000141'
p5932
asS'abyssal feature'
p5933
(lp5934
g3105
ag2622
asS'shoreline'
p5935
(lp5936
g1186
ag2094
asS'undersea basin'
p5937
(lp5938
g519
asS'fan (alluvial)'
p5939
(lp5940
g3685
asS'undersea tongue'
p5941
(lp5942
g519
asS'recurved spit'
p5943
(lp5944
g99
asS'dry river'
p5945
(lp5946
S'ENVO:00000018'
p5947
asS'sink'
p5948
(lp5949
g1422
ag1422
asS'FreshwaterLake'
p5950
(lp5951
g4685
asS'distilled fermented grain beverage'
p5952
(lp5953
S'ENVO:0010047'
p5954
asS'Marine Division - Mountain Provinces (M240)'
p5955
(lp5956
S'ENVO:00003015'
p5957
asS'Trench'
p5958
(lp5959
g3782
asS'river bank'
p5960
(lp5961
g4216
asS'barrier lagoon'
p5962
(lp5963
g566
asS'Stream'
p5964
(lp5965
g203
asS'sea beach'
p5966
(lp5967
g4004
asS'plant roots'
p5968
(lp5969
g815
asS'consequent stream'
p5970
(lp5971
S'ENVO:00000490'
p5972
asS'neritic mesopelagic zone biome'
p5973
(lp5974
S'ENVO:01000043'
p5975
asS'terrigenous sediment'
p5976
(lp5977
S'ENVO:01000070'
p5978
asS'fruit juice beverage'
p5979
(lp5980
S'ENVO:0010052'
p5981
asS'skin'
p5982
(lp5983
S'ID:0000041'
p5984
aS'ID:0000058'
p5985
asS'medical implant'
p5986
(lp5987
g7
asS'Mountain'
p5988
(lp5989
g344
asS'natural preserve'
p5990
(lp5991
g1507
asS'plant stem food product'
p5992
(lp5993
S'ENVO:0010087'
p5994
asS'Biological Dechlorination'
p5995
(lp5996
g639
asS'university campus'
p5997
(lp5998
S'ENVO:00000467'
p5999
asS'biliary stent'
p6000
(lp6001
S'ID:0000097'
p6002
asS'biodegradation of dichloromethane'
p6003
(lp6004
g1362
asS'canalized stream'
p6005
(lp6006
g2091
ag2091
asS'REEF, ISLAND'
p6007
(lp6008
g3024
asS'smoked sausage'
p6009
(lp6010
S'ENVO:0010132'
p6011
asS'glacier tongue'
p6012
(lp6013
g4327
asS'microbial feature'
p6014
(lp6015
S'ENVO:01000007'
p6016
asS'fen'
p6017
(lp6018
S'ENVO:00000232'
p6019
asS'boundary current front'
p6020
(lp6021
S'ENVO:01000093'
p6022
asS'archipelago apron'
p6023
(lp6024
g2612
asS'bulk soil'
p6025
(lp6026
S'ENVO:00005802'
p6027
asS'crag'
p6028
(lp6029
S'ENVO:00000089'
p6030
ag6030
ag864
asS'ocean floor'
p6031
(lp6032
g2385
ag3921
asS'flood control dam'
p6033
(lp6034
S'ENVO:00000471'
p6035
asS'shingle beach'
p6036
(lp6037
S'ENVO:00000545'
p6038
asS'granular sediment'
p6039
(lp6040
S'ENVO:01000117'
p6041
asS'composite volcano'
p6042
(lp6043
g5661
asS'neritic zone'
p6044
(lp6045
S'ENVO:00000206'
p6046
asS'Altamaha and Ohopee River Valley inland dune field'
p6047
(lp6048
g1491
asS'floodplain'
p6049
(lp6050
g143
asS'Plain'
p6051
(lp6052
g262
asS'Flooded grasslands and savanna biome'
p6053
(lp6054
S'ENVO:00000885'
p6055
asS'basalt'
p6056
(lp6057
S'ID:0000012'
p6058
asS'trail'
p6059
(lp6060
g1392
ag1392
ag1392
ag1392
asS'rootless vent'
p6061
(lp6062
S'ENVO:00000461'
p6063
asS'Savanna Division (410)'
p6064
(lp6065
S'ENVO:00003028'
p6066
asS'puszta'
p6067
(lp6068
g1286
asS'bottled fruit product'
p6069
(lp6070
S'ENVO:00003888'
p6071
asS'Savanna'
p6072
(lp6073
g1499
asS'continental arc'
p6074
(lp6075
S'ENVO:00000352'
p6076
asS'insequent stream'
p6077
(lp6078
S'ENVO:00000494'
p6079
asS'abyssalpelagic zone'
p6080
(lp6081
S'ENVO:00000212'
p6082
asS'tunnel'
p6083
(lp6084
g1016
ag1016
ag727
aS'ENVO:00000522'
p6085
asS'dcm degrading environment'
p6086
(lp6087
g1362
asS'arsenate treated wood'
p6088
(lp6089
S'ENVO:00002136'
p6090
asS'undersea fracture zone'
p6091
(lp6092
g519
asS'road cut'
p6093
(lp6094
S'ENVO:00000515'
p6095
ag6095
asS'degradation of dichloromethane'
p6096
(lp6097
g1362
asS'parkway'
p6098
(lp6099
g16
ag16
asS'mud flat'
p6100
(lp6101
g309
ag5210
ag5210
asS'anthropogenic feature'
p6102
(lp6103
g350
asS'mountain crest'
p6104
(lp6105
g1324
asS'rennet product'
p6106
(lp6107
S'ENVO:0010140'
p6108
asS'rivage'
p6109
(lp6110
g480
ag1187
ag2309
asS'crevasse'
p6111
(lp6112
g1007
asS'kelp forest'
p6113
(lp6114
S'ENVO:01000058'
p6115
asS'lock'
p6116
(lp6117
S'ENVO:00000357'
p6118
asS'loch'
p6119
(lp6120
g709
ag164
asS'undersea rise'
p6121
(lp6122
g519
asS'processed meat product'
p6123
(lp6124
g2590
asS'buckewheat product'
p6125
(lp6126
S'ENVO:0010098'
p6127
asS'taiga'
p6128
(lp6129
g276
asS'waterbody'
p6130
(lp6131
g1333
asS'improved channel'
p6132
(lp6133
S'ENVO:00000121'
p6134
ag847
asS'sea shore'
p6135
(lp6136
g4371
asS'contaminated sediment'
p6137
(lp6138
S'ENVO:00002114'
p6139
asS'nullah'
p6140
(lp6141
g233
asS'zoological park'
p6142
(lp6143
g3986
asS'suspended sediment'
p6144
(lp6145
S'ENVO:01000113'
p6146
asS'lagoons'
p6147
(lp6148
g566
asS'OceanRidge'
p6149
(lp6150
g1636
asS'road bend'
p6151
(lp6152
g16
asS'euendolithic'
p6153
(lp6154
g841
asS'UASB reactor'
p6155
(lp6156
g2267
asS'iron meteorite'
p6157
(lp6158
S'ENVO:00002052'
p6159
asS'forest'
p6160
(lp6161
g387
ag387
asS'anaerobic condition'
p6162
(lp6163
g1876
asS'arched iceberg'
p6164
(lp6165
g1292
asS'stand'
p6166
(lp6167
g276
asS'genetically engineered rennet'
p6168
(lp6169
S'ENVO:0010153'
p6170
asS'coal mine'
p6171
(lp6172
S'ENVO:00002169'
p6173
asS'lesion'
p6174
(lp6175
g466
asS'farm'
p6176
(lp6177
g112
ag112
asS'undersea apron'
p6178
(lp6179
g2612
asS'alkaline salt lake'
p6180
(lp6181
g2615
asS'forest reserve'
p6182
(lp6183
g387
asS'vineyards'
p6184
(lp6185
g2360
asS'WATERCOURSE'
p6186
(lp6187
g204
asS'bluff'
p6188
(lp6189
g1619
ag1619
asS'saline wetland'
p6190
(lp6191
S'ENVO:00000240'
p6192
asS'Grassland'
p6193
(lp6194
g226
asS'footpath'
p6195
(lp6196
g1392
asS'cabbage'
p6197
(lp6198
S'ENVO:00002217'
p6199
asS'cuesta'
p6200
(lp6201
g1879
ag1879
ag1879
ag488
ag488
asS'marine hadal zone biome'
p6202
(lp6203
S'ENVO:01000028'
p6204
asS'air conditioning unit'
p6205
(lp6206
S'ENVO:00002874'
p6207
asS'anthropogenic'
p6208
(lp6209
g657
asS'countries, 1st order division'
p6210
(lp6211
g230
asS'hypocotyl seedling'
p6212
(lp6213
g3415
asS'corral'
p6214
(lp6215
g111
asS'Sapropel'
p6216
(lp6217
g2861
asS'clay soil'
p6218
(lp6219
S'ENVO:00002262'
p6220
asS'bakery'
p6221
(lp6222
S'ENVO:00003864'
p6223
asS'string mire'
p6224
(lp6225
g3713
asS'mine tailing'
p6226
(lp6227
g149
asS'natural monument'
p6228
(lp6229
S'ENVO:00000359'
p6230
asS'uranium contamination site'
p6231
(lp6232
S'ID:0000131'
p6233
asS'Temperate shelf and sea biome'
p6234
(lp6235
S'ENVO:00000895'
p6236
asS'uncontaminated site'
p6237
(lp6238
g3916
asS'eucalyptus forest soil'
p6239
(lp6240
S'ENVO:00005787'
p6241
asS'headwater'
p6242
(lp6243
g2465
asS'shelf-slope/shelf-break front'
p6244
(lp6245
S'ENVO:01000089'
p6246
asS'cropland'
p6247
(lp6248
g3483
ag997
ag3005
ag4358
ag2360
ag627
ag227
ag3307
asS'intermittent estuary'
p6249
(lp6250
S'ENVO:00000229'
p6251
asS'Kartchner caverns'
p6252
(lp6253
g3840
asS'pelagic sediment'
p6254
(lp6255
g3288
asS'beach face'
p6256
(lp6257
g2309
asS'meat food product'
p6258
(lp6259
S'ENVO:00002165'
p6260
asS'pulses'
p6261
(lp6262
S'ENVO:0010121'
p6263
asS'Udvardy biome'
p6264
(lp6265
S'ENVO:00002986'
p6266
asS'glen'
p6267
(lp6268
g207
ag207
asS'Bleu  de Bresse'
p6269
(lp6270
g1250
asS'inlet'
p6271
(lp6272
g644
ag164
ag2567
ag338
ag1373
ag1865
ag1865
aS'ENVO:00000497'
p6273
asS'bay ice'
p6274
(lp6275
g326
asS'BOTTOM'
p6276
(lp6277
S'ENVO:00000501'
p6278
asS'llyn'
p6279
(lp6280
g709
asS'oil contamination'
p6281
(lp6282
g1347
asS'brook'
p6283
(lp6284
g203
ag203
ag204
asS'production wastewater'
p6285
(lp6286
g1520
asS'marsh'
p6287
(lp6288
g3403
ag3403
ag309
asS'irrigation ditch'
p6289
(lp6290
g5552
ag5552
ag5552
asS'ROAD'
p6291
(lp6292
g16
asS'pebble sediment'
p6293
(lp6294
S'ENVO:01000116'
p6295
asS'dam'
p6296
(lp6297
g2843
ag2843
ag4525
asS'dike'
p6298
(lp6299
g443
ag443
ag443
asS'Microbial fuel cell'
p6300
(lp6301
S'ID:0000067'
p6302
asS'pig manure'
p6303
(lp6304
S'ENVO:00003860'
p6305
asS'mid-ocean ridge'
p6306
(lp6307
g1636
asS'seawater'
p6308
(lp6309
g870
asS'cutting'
p6310
(lp6311
g5347
asS'marine sediment'
p6312
(lp6313
g3288
asS'fermented dairy product'
p6314
(lp6315
S'ENVO:00003873'
p6316
asS'piggery'
p6317
(lp6318
S'ENVO:00003042'
p6319
asS'kettle hole'
p6320
(lp6321
g1423
asS'fermented plant derived beverage'
p6322
(lp6323
S'ENVO:0010170'
p6324
asS'Bondon cheese'
p6325
(lp6326
S'ENVO:00003966'
p6327
asS'cider'
p6328
(lp6329
g5889
asS'ice sheet'
p6330
(lp6331
g326
ag1696
asS'flume (natural)'
p6332
(lp6333
g417
asS'Membrane bioreactor'
p6334
(lp6335
S'ID:0000048'
p6336
asS'marginal sea biome'
p6337
(lp6338
S'ENVO:01000046'
p6339
asS'undersea trench'
p6340
(lp6341
g3782
asS'brush'
p6342
(lp6343
g276
asS'cobble sediment'
p6344
(lp6345
S'ENVO:01000115'
p6346
asS'estuary sediment'
p6347
(lp6348
S'ID:0000078'
p6349
asS'flood control reservoir'
p6350
(lp6351
g455
asS'fermented rice beverage'
p6352
(lp6353
S'ENVO:00003871'
p6354
asS'potato salad'
p6355
(lp6356
S'ENVO:02000076'
p6357
asS'pelagic isopycnal surface'
p6358
(lp6359
S'ENVO:01000083'
p6360
asS'creosote contaminated soil'
p6361
(lp6362
S'ENVO:00002117'
p6363
asS'second-order administrative region'
p6364
(lp6365
g485
asS'bay bar'
p6366
(lp6367
g99
asS'WHRL'
p6368
(lp6369
g2609
asS'human skin'
p6370
(lp6371
g5985
asS'bay'
p6372
(lp6373
g644
ag644
ag1865
asS'tuya'
p6374
(lp6375
S'ENVO:00000370'
p6376
ag4603
asS'submarine isthmus'
p6377
(lp6378
g1113
asS'mate'
p6379
(lp6380
S'ENVO:0010160'
p6381
asS'cwm'
p6382
(lp6383
g152
asS'somma volcano'
p6384
(lp6385
S'ENVO:00000350'
p6386
asS'icecap dome'
p6387
(lp6388
g812
ag812
asS'nesting material'
p6389
(lp6390
S'ENVO:02000004'
p6391
asS'peat bog'
p6392
(lp6393
g797
asS'volcanic fissure'
p6394
(lp6395
g3366
asS'unpasteurized ovine milk'
p6396
(lp6397
S'ENVO:02000089'
p6398
asS'spruce forest soil'
p6399
(lp6400
S'ENVO:00005784'
p6401
asS'indeterminate root nodule active meristem'
p6402
(lp6403
S'ENVO:01000169'
p6404
asS'CSF'
p6405
(lp6406
g1775
asS'sarcosine enriched soil'
p6407
(lp6408
S'ENVO:00003083'
p6409
asS'inverse estuary'
p6410
(lp6411
S'ENVO:00000228'
p6412
asS'carbon dioxide-reducing sediment'
p6413
(lp6414
S'ENVO:01000154'
p6415
asS'pantothenate enriched soil'
p6416
(lp6417
S'ENVO:00003088'
p6418
asS'underpass'
p6419
(lp6420
g1016
asS'koumiss'
p6421
(lp6422
g4682
asS'skatole enriched soil'
p6423
(lp6424
S'ENVO:00003085'
p6425
asS'icecap ridge'
p6426
(lp6427
g488
asS'farmland'
p6428
(lp6429
g112
asS'mortlake'
p6430
(lp6431
g709
asS'scarp'
p6432
(lp6433
g1619
ag1879
asS'estuary sediments'
p6434
(lp6435
g6349
asS'range (physiographic)'
p6436
(lp6437
g2991
asS'nuclear weapons test site'
p6438
(lp6439
S'ENVO:00000560'
p6440
asS'intermittent ponds'
p6441
(lp6442
g4176
asS'pseudocrater'
p6443
(lp6444
g6063
asS'oil sludge'
p6445
(lp6446
S'ENVO:00002060'
p6447
asS'SPRING'
p6448
(lp6449
g966
asS'proglacial lake'
p6450
(lp6451
S'ENVO:00000435'
p6452
asS'Small lake biome'
p6453
(lp6454
S'ENVO:00000892'
p6455
asS'ice-cream'
p6456
(lp6457
g2690
asS'predigester slurry'
p6458
(lp6459
S'ID:0000114'
p6460
asS'saline lake'
p6461
(lp6462
g542
asS'first level subdivision'
p6463
(lp6464
g230
asS'siderite'
p6465
(lp6466
S'ID:0000101'
p6467
asS'marine pelagic biome'
p6468
(lp6469
S'ENVO:01000023'
p6470
asS'Harzerkaese'
p6471
(lp6472
g437
asS'contaminated water'
p6473
(lp6474
g3790
aS'ID:0000029'
p6475
asS'Saline soil collected in Chott el Gharsa'
p6476
(lp6477
S'ID:0000125'
p6478
asS'artificial channel'
p6479
(lp6480
g6134
asS'vagina'
p6481
(lp6482
S'ID:0000039'
p6483
asS'slide'
p6484
(lp6485
g1078
ag1078
asS'terminal basin'
p6486
(lp6487
g1544
asS'oil-bearing'
p6488
(lp6489
g1979
asS'snowfield'
p6490
(lp6491
g2224
ag2224
asS'flume'
p6492
(lp6493
g1483
ag6134
asS'stomach'
p6494
(lp6495
g780
asS'cheese spoilage'
p6496
(lp6497
S'ENVO:00002220'
p6498
asS'quarry'
p6499
(lp6500
g972
ag972
asS'shelf'
p6501
(lp6502
g858
asS'plantation field'
p6503
(lp6504
g627
asS'marine hydrothermal vent chimney'
p6505
(lp6506
S'ENVO:01000129'
p6507
asS'floodway'
p6508
(lp6509
S'ENVO:00000256'
p6510
asS'Ruoergai'
p6511
(lp6512
S'ID:0000109'
p6513
asS'inorganically contaminated sediment'
p6514
(lp6515
S'ENVO:00002203'
p6516
asS'yeast product'
p6517
(lp6518
S'ENVO:0010056'
p6519
asS'glacial trough'
p6520
(lp6521
g207
asS'traffic circle'
p6522
(lp6523
g16
asS'ear wax'
p6524
(lp6525
S'ENVO:02000028'
p6526
asS'neck'
p6527
(lp6528
g1113
ag835
asS'thermal spring'
p6529
(lp6530
g1922
asS'Sequencing batch reactor'
p6531
(lp6532
g2416
asS'oxbow loop'
p6533
(lp6534
g1487
asS'silage'
p6535
(lp6536
S'ENVO:00003030'
p6537
asS'food product'
p6538
(lp6539
S'ENVO:00002002'
p6540
asS'bed'
p6541
(lp6542
g6278
asS'seachannel'
p6543
(lp6544
g204
ag207
asS'borehole'
p6545
(lp6546
S'ENVO:00002226'
p6547
asS'uranium mining waste pile '
p6548
(lp6549
g852
asS'marine feature'
p6550
(lp6551
S'ENVO:01000031'
p6552
asS'manganese nodule'
p6553
(lp6554
S'ENVO:01000112'
p6555
asS'torrent'
p6556
(lp6557
g1602
asS'fermentation'
p6558
(lp6559
g5400
asS'plant derived beverage'
p6560
(lp6561
S'ENVO:0010169'
p6562
asS'cruciferous inflorescence food product'
p6563
(lp6564
S'ENVO:0010083'
p6565
asS'pampas'
p6566
(lp6567
g1286
asS'phytoplankton'
p6568
(lp6569
S'ID:0000064'
p6570
asS'kimchee'
p6571
(lp6572
g2150
asS'volcanic arc'
p6573
(lp6574
S'ENVO:00000351'
p6575
asS'cavern'
p6576
(lp6577
g2897
ag2897
asS'egg product'
p6578
(lp6579
S'ENVO:02000056'
p6580
asS'biofilm material'
p6581
(lp6582
S'ENVO:01000156'
p6583
asS'freshwater-pond'
p6584
(lp6585
g2478
asS'cerumen'
p6586
(lp6587
g6526
asS'coastal upwelling'
p6588
(lp6589
S'ENVO:01000006'
p6590
asS'cereal food product'
p6591
(lp6592
S'ENVO:0010002'
p6593
asS'wheat flour'
p6594
(lp6595
S'ENVO:0010122'
p6596
asS'volcanic mudflow'
p6597
(lp6598
g4147
asS'tulelands'
p6599
(lp6600
g309
asS'scree'
p6601
(lp6602
g1075
asS'megabasalt'
p6603
(lp6604
g6058
asS'chasmoendolithic'
p6605
(lp6606
g841
asS'elbow pit'
p6607
(lp6608
g3913
ag6483
asS'sawmill'
p6609
(lp6610
S'ENVO:00004638'
p6611
asS'anaerobic sludge'
p6612
(lp6613
S'ENVO:00002129'
p6614
asS'world heritage site'
p6615
(lp6616
S'ENVO:00000375'
p6617
asS'"saline feature"'
p6618
(lp6619
g4274
asS'poultry meat product'
p6620
(lp6621
S'ENVO:0010043'
p6622
asS'soy sauce'
p6623
(lp6624
S'ENVO:0010148'
p6625
asS'epilimnion'
p6626
(lp6627
S'ENVO:00002131'
p6628
asS'penplain'
p6629
(lp6630
S'ENVO:00000460'
p6631
asS'MFC'
p6632
(lp6633
g6302
asS'peaty paddy field soil'
p6634
(lp6635
S'ENVO:00005776'
p6636
asS'cabbage product'
p6637
(lp6638
g6199
asS'sandy beach'
p6639
(lp6640
S'ENVO:00002199'
p6641
asS'POOL'
p6642
(lp6643
g2478
asS'sea ice'
p6644
(lp6645
S'ENVO:00002200'
p6646
asS'Estuary'
p6647
(lp6648
g2567
asS'hot dog'
p6649
(lp6650
S'ENVO:00002174'
p6651
asS'glacial moraine'
p6652
(lp6653
g259
asS'particle of silt'
p6654
(lp6655
S'ENVO:00000343'
p6656
asS'stream bank'
p6657
(lp6658
g1797
ag1797
asS'fermented apple'
p6659
(lp6660
g5342
asS'infected cardiac valve'
p6661
(lp6662
S'ID:0000001'
p6663
asS'jeotgal'
p6664
(lp6665
S'ENVO:00003077'
p6666
asS'painting'
p6667
(lp6668
S'ID:0000034'
p6669
asS'marine neritic benthic zone biome'
p6670
(lp6671
S'ENVO:01000025'
p6672
asS'bodies of water'
p6673
(lp6674
g1333
asS'marsh bar'
p6675
(lp6676
g99
asS'sand spit'
p6677
(lp6678
g99
asS'brine'
p6679
(lp6680
S'ENVO:00003044'
p6681
asS'activated sludge'
p6682
(lp6683
S'ENVO:00002046'
p6684
asS'thicket'
p6685
(lp6686
g276
asS'farm lane'
p6687
(lp6688
g16
asS'interstitial fluid'
p6689
(lp6690
g1295
asS'aquatic biome'
p6691
(lp6692
S'ENVO:00002030'
p6693
asS'Subarctic Division - Mountain Provinces (M130)'
p6694
(lp6695
S'ENVO:00003005'
p6696
asS'beaver pond'
p6697
(lp6698
S'ENVO:00000270'
p6699
asS'sprouts'
p6700
(lp6701
g3050
asS'jam'
p6702
(lp6703
S'ENVO:0010139'
p6704
asS'brine pool'
p6705
(lp6706
g4993
asS'mid-shelf fronts'
p6707
(lp6708
S'ENVO:01000088'
p6709
asS'chapeirao'
p6710
(lp6711
g864
asS'pyroclastic dome'
p6712
(lp6713
g5848
asS'water buffalo milk'
p6714
(lp6715
S'ENVO:02000016'
p6716
asS'canyons'
p6717
(lp6718
g312
asS'disease-related locus'
p6719
(lp6720
g2159
asS'dredged channel'
p6721
(lp6722
g204
asS'reservoir bed'
p6723
(lp6724
g373
asS'gulch'
p6725
(lp6726
g204
ag207
ag417
asS'buffer zone'
p6727
(lp6728
g4836
ag4836
asS'spur'
p6729
(lp6730
g488
ag4923
ag4923
asS'affluent stream'
p6731
(lp6732
g1289
asS'sweat'
p6733
(lp6734
S'ENVO:02000025'
p6735
asS'thermocline'
p6736
(lp6737
S'ENVO:00002132'
p6738
aS'ENVO:00002269'
p6739
asS'brain'
p6740
(lp6741
S'ID:0000059'
p6742
asS'marine benthic storm'
p6743
(lp6744
S'ENVO:01000062'
p6745
asS'watershed'
p6746
(lp6747
g306
ag279
asS'affluent'
p6748
(lp6749
g1289
asS'tableland'
p6750
(lp6751
g1330
ag1330
asS'terrestrial realm'
p6752
(lp6753
g4311
asS'sisal plantation'
p6754
(lp6755
g5040
ag5040
asS'waterfalls'
p6756
(lp6757
g121
asS'monsoon forest'
p6758
(lp6759
g276
asS'sediment'
p6760
(lp6761
S'ENVO:00002007'
p6762
asS'underwater feature'
p6763
(lp6764
g519
asS'oil feature'
p6765
(lp6766
g3425
ag3426
asS'subglacial lake'
p6767
(lp6768
S'ENVO:00000198'
p6769
asS'warm surface current'
p6770
(lp6771
S'ENVO:01000101'
p6772
asS'upper littoral'
p6773
(lp6774
g912
asS'pastoral site'
p6775
(lp6776
g111
asS'wetland'
p6777
(lp6778
g3403
ag3403
ag309
ag309
ag797
ag797
ag2035
ag127
ag4751
ag1257
ag3713
ag5210
ag128
ag6019
ag6019
ag3156
ag3156
ag4229
ag2250
ag50
ag3750
ag907
ag4014
asS'Mediterranean forests, woodlands, and shrub biome'
p6779
(lp6780
S'ENVO:00000878'
p6781
asS'kimchi'
p6782
(lp6783
g2150
asS'abyssal hill'
p6784
(lp6785
g3105
asS'digestive tract'
p6786
(lp6787
g780
asS'populated place'
p6788
(lp6789
g760
ag760
asS'boulder field'
p6790
(lp6791
S'ENVO:00000537'
p6792
ag6792
asS'oxisol'
p6793
(lp6794
g5470
asS'clearing'
p6795
(lp6796
g1786
ag1786
ag1786
ag890
asS'planosol'
p6797
(lp6798
S'ENVO:00002251'
p6799
asS'calcite hot spring'
p6800
(lp6801
S'ENVO:00002143'
p6802
asS'state'
p6803
(lp6804
g167
asS'hammock'
p6805
(lp6806
g1219
asS'organically contaminated sediment'
p6807
(lp6808
S'ENVO:00002202'
p6809
asS'barranca'
p6810
(lp6811
g204
ag417
asS'well water'
p6812
(lp6813
g4052
asS'boundary'
p6814
(lp6815
g1237
asS'subterrestrial habitat'
p6816
(lp6817
g569
asS'iron-reducing sediment'
p6818
(lp6819
S'ENVO:01000152'
p6820
asS'soya food product'
p6821
(lp6822
S'ENVO:0010049'
p6823
asS'seamount range'
p6824
(lp6825
g579
asS'sand desert'
p6826
(lp6827
g108
asS'cecum'
p6828
(lp6829
g2407
asS'stony desert'
p6830
(lp6831
g5731
ag5731
asS'deep-sea water'
p6832
(lp6833
g513
asS'testosterone enriched soil'
p6834
(lp6835
S'ENVO:00003089'
p6836
asS'PLUNGE POOL'
p6837
(lp6838
g3672
asS'pasture soil'
p6839
(lp6840
S'ENVO:00005773'
p6841
asS'fermented Elaeis Palm beverage'
p6842
(lp6843
S'ENVO:0010007'
p6844
asS'key'
p6845
(lp6846
g367
asS'rocky desert'
p6847
(lp6848
g2051
asS'inland cliff'
p6849
(lp6850
g6030
asS'volcanic landform'
p6851
(lp6852
g660
asS'baymouth bar'
p6853
(lp6854
g99
asS'SNOWFIELD'
p6855
(lp6856
g2224
asS'freshwater wetland'
p6857
(lp6858
S'ENVO:00000243'
p6859
asS'effluent'
p6860
(lp6861
g1520
asS'polymetallic nodule'
p6862
(lp6863
g6555
asS'condiment'
p6864
(lp6865
S'ENVO:0010045'
p6866
asS'marine subtidal rocky reef biome'
p6867
(lp6868
S'ENVO:01000050'
p6869
asS'river bottom'
p6870
(lp6871
g1485
asS'sea water fish egg product'
p6872
(lp6873
S'ENVO:0010016'
p6874
asS'arboreal habitat'
p6875
(lp6876
S'ENVO:00000571'
p6877
asS'streams'
p6878
(lp6879
g203
asS'intestinal tract'
p6880
(lp6881
g780
asS'acetamide enriched soil'
p6882
(lp6883
S'ENVO:00003087'
p6884
asS'burn (hydrographic)'
p6885
(lp6886
g203
asS'canopy'
p6887
(lp6888
S'ENVO:00000047'
p6889
asS'highland'
p6890
(lp6891
g1330
asS'MOUNT RANGE'
p6892
(lp6893
g317
asS'Inlet'
p6894
(lp6895
g1865
asS'lacustrine plain'
p6896
(lp6897
S'ENVO:00000259'
p6898
asS'caverns'
p6899
(lp6900
g2897
asS'wadi mouth'
p6901
(lp6902
g233
aS'ENVO:00000507'
p6903
ag6903
asS'topographic upwelling front'
p6904
(lp6905
S'ENVO:01000091'
p6906
asS'Rainforest Division - Mountain Provinces (M420)'
p6907
(lp6908
S'ENVO:00003027'
p6909
asS'volcanic mud'
p6910
(lp6911
g4147
asS'microbial mat'
p6912
(lp6913
S'ENVO:01000008'
p6914
asS'FLOOD PLAIN'
p6915
(lp6916
g143
asS'phaeozem'
p6917
(lp6918
S'ENVO:00002249'
p6919
asS'vaginal epithelium'
p6920
(lp6921
g6483
asS'fishery'
p6922
(lp6923
g672
asS'uranium mining waste'
p6924
(lp6925
g852
asS'field soil'
p6926
(lp6927
S'ENVO:00005755'
p6928
asS'garique'
p6929
(lp6930
g276
asS'muddy water'
p6931
(lp6932
S'ENVO:00005793'
p6933
asS'waste'
p6934
(lp6935
S'ENVO:00002264'
p6936
asS'chasmoendolith'
p6937
(lp6938
g841
asS'environmental material'
p6939
(lp6940
S'ENVO:00010483'
p6941
asS'igneous rock'
p6942
(lp6943
S'ENVO:00002013'
p6944
asS'upland soil'
p6945
(lp6946
S'ENVO:00005786'
p6947
asS'rincon'
p6948
(lp6949
g6273
asS'foreshore'
p6950
(lp6951
g2309
asS'Warm Continental Division (210)'
p6952
(lp6953
S'ENVO:00003010'
p6954
asS'saddle dam'
p6955
(lp6956
S'ENVO:00000554'
p6957
asS'waterhole'
p6958
(lp6959
S'ENVO:00000547'
p6960
ag6960
asS'un-contaminated feature'
p6961
(lp6962
g3916
asS'polynya'
p6963
(lp6964
g890
asS'rice product'
p6965
(lp6966
S'ENVO:0010097'
p6967
asS'crude oil'
p6968
(lp6969
g4170
ag3425
ag3426
asS'artificial island'
p6970
(lp6971
g5352
ag5352
asS'radioactive waste depository'
p6972
(lp6973
g2738
asS'travertine'
p6974
(lp6975
S'ENVO:00003982'
p6976
asS'bugor'
p6977
(lp6978
g2085
asS'plain'
p6979
(lp6980
g262
ag262
ag263
ag1789
asS'cultivated cropland'
p6981
(lp6982
g997
asS'chalk'
p6983
(lp6984
S'ENVO:00002054'
p6985
asS'promontgory'
p6986
(lp6987
g835
asS'western boundary current'
p6988
(lp6989
S'ENVO:01000103'
p6990
asS'urea enriched soil'
p6991
(lp6992
S'ENVO:00005753'
p6993
asS'urban area'
p6994
(lp6995
g2805
asS'Tropical/Subtropical Steppe Division (310)'
p6996
(lp6997
S'ENVO:00003026'
p6998
asS'chondrite'
p6999
(lp7000
S'ENVO:00002048'
p7001
asS'pool'
p7002
(lp7003
g2478
ag2478
asS'intermittent salt pond'
p7004
(lp7005
g1850
ag1850
asS'pulp-bleaching waste water'
p7006
(lp7007
S'ENVO:00002193'
p7008
asS'surface'
p7009
(lp7010
S'ENVO:00010504'
p7011
asS'UASB granular sludge'
p7012
(lp7013
g1538
asS'canal tunnel'
p7014
(lp7015
g1016
ag6085
ag6085
asS'bailing station'
p7016
(lp7017
g111
asS'Beach'
p7018
(lp7019
g480
asS'volcanic crater'
p7020
(lp7021
g4151
asS'leguminous food product'
p7022
(lp7023
g915
asS'undersea ledge'
p7024
(lp7025
g519
asS'median valley'
p7026
(lp7027
g207
ag207
asS'tidal watercourse'
p7028
(lp7029
S'ENVO:00000412'
p7030
asS'plant inflorescence food product'
p7031
(lp7032
S'ENVO:0010078'
p7033
asS'pathogenicity-related habitat'
p7034
(lp7035
g2159
asS'coastal buoyancy current front'
p7036
(lp7037
S'ENVO:01000086'
p7038
asS'peatland'
p7039
(lp7040
g309
ag797
asS'sand bank'
p7041
(lp7042
g99
asS'unpasteurized goat milk cheese'
p7043
(lp7044
S'ENVO:02000082'
p7045
asS'MBR'
p7046
(lp7047
g6336
asS'ball'
p7048
(lp7049
g99
asS'mountain chain'
p7050
(lp7051
g317
asS'power plant'
p7052
(lp7053
S'ENVO:00002214'
p7054
asS'foreland'
p7055
(lp7056
g835
asS'pan (geologic)'
p7057
(lp7058
g291
asS'chemical compound'
p7059
(lp7060
g2967
asS'hydroelectric reservoir'
p7061
(lp7062
S'ENVO:00000448'
p7063
asS'dust'
p7064
(lp7065
S'ENVO:00002008'
p7066
asS'cane sugar'
p7067
(lp7068
S'ENVO:00003050'
p7069
asS'marine snow'
p7070
(lp7071
S'ENVO:01000158'
p7072
asS'maquis'
p7073
(lp7074
g1228
asS'gutter'
p7075
(lp7076
g204
asS'bitter cheese'
p7077
(lp7078
S'ENVO:00003969'
p7079
asS'Spring'
p7080
(lp7081
g966
asS'well'
p7082
(lp7083
g1033
ag1033
asS'DELTA'
p7084
(lp7085
g1087
asS'ravine'
p7086
(lp7087
g204
ag207
ag13
ag13
ag417
ag417
asS'millstream'
p7088
(lp7089
g203
asS'fluvisol'
p7090
(lp7091
S'ENVO:00002273'
p7092
asS'tea estate'
p7093
(lp7094
g2243
asS'avian egg product'
p7095
(lp7096
S'ENVO:0010017'
p7097
asS'gully'
p7098
(lp7099
g204
ag233
ag207
ag207
asS'acidic soil'
p7100
(lp7101
g10
asS'savannah'
p7102
(lp7103
g1499
asS'Cave'
p7104
(lp7105
g2897
asS'winged headland'
p7106
(lp7107
g835
asS'footbridge'
p7108
(lp7109
g19
asS'gypsisol'
p7110
(lp7111
S'ENVO:00002245'
p7112
asS'scrubland'
p7113
(lp7114
g129
ag129
asS'cooked smoked sausage'
p7115
(lp7116
S'ENVO:0010131'
p7117
asS'piece of rock'
p7118
(lp7119
S'ENVO:00000339'
p7120
asS'glue'
p7121
(lp7122
S'ENVO:00003076'
p7123
asS'atoll'
p7124
(lp7125
g3024
ag3024
ag3024
asS'Warm Continental Division - Mountain Provinces (M210)'
p7126
(lp7127
S'ENVO:00003011'
p7128
asS'field'
p7129
(lp7130
g3005
ag3005
asS'marine benthic biome'
p7131
(lp7132
g3921
asS'point'
p7133
(lp7134
g99
ag835
ag835
ag835
asS'lake'
p7135
(lp7136
g709
ag709
ag823
ag2478
ag2478
ag566
ag3628
ag986
ag715
ag2789
ag2789
ag4436
ag4436
ag339
ag339
ag2215
ag6699
ag2216
ag2219
ag1373
ag6452
ag4540
ag920
ag1994
ag4176
ag4393
ag1850
asS'bench'
p7137
(lp7138
g356
ag356
ag356
ag504
asS'metalimnion'
p7139
(lp7140
g6738
asS'marine subtidal rocky reef'
p7141
(lp7142
S'ENVO:01000150'
p7143
asS'Granular activated carbon'
p7144
(lp7145
g4931
asS'stratum'
p7146
(lp7147
g777
asS'knob'
p7148
(lp7149
g59
asS'yak dairy product'
p7150
(lp7151
S'ENVO:0010025'
p7152
asS'aqueous humour'
p7153
(lp7154
S'ENVO:02000024'
p7155
asS'water body'
p7156
(lp7157
g1333
asS'cantaloup'
p7158
(lp7159
g3186
asS'ford (crossing)'
p7160
(lp7161
g649
asS'tropical soil'
p7162
(lp7163
S'ENVO:00005778'
p7164
asS'SSSI'
p7165
(lp7166
g1060
asS'melon fruit product'
p7167
(lp7168
S'ENVO:0010064'
p7169
asS'greenhouse soil'
p7170
(lp7171
S'ENVO:00005780'
p7172
asS'cutoff (hydrographic)'
p7173
(lp7174
g449
asS'Volcano'
p7175
(lp7176
g682
asS'hollow'
p7177
(lp7178
g207
ag207
ag207
asS'pier'
p7179
(lp7180
S'ENVO:00000563'
p7181
asS'grass silage'
p7182
(lp7183
S'ENVO:00003071'
p7184
asS'haline habitat'
p7185
(lp7186
S'ENVO:00002024'
p7187
asS'inland sea'
p7188
(lp7189
g4436
asS'nest of ant'
p7190
(lp7191
g2703
asS'Temperate grasslands, savannas, and shrubland biome'
p7192
(lp7193
S'ENVO:00000877'
p7194
asS'continental ice'
p7195
(lp7196
g326
asS'candy'
p7197
(lp7198
S'ENVO:0010126'
p7199
asS'intertidal zone'
p7200
(lp7201
g1186
ag2125
asS'biogas plant'
p7202
(lp7203
g1013
asS'Meshanger cheese'
p7204
(lp7205
S'ENVO:00003078'
p7206
asS'anaerobic stream sediment'
p7207
(lp7208
S'ENVO:00002134'
p7209
asS'solanaceous fruit product'
p7210
(lp7211
S'ENVO:0010075'
p7212
asS'plateau glacier'
p7213
(lp7214
S'ENVO:00000457'
p7215
asS'marine sponge reef biome'
p7216
(lp7217
S'ENVO:01000123'
p7218
asS'ISLAND CLUSTER'
p7219
(lp7220
g551
asS'technosol'
p7221
(lp7222
S'ENVO:00002275'
p7223
asS'habitat'
p7224
(lp7225
g4179
asS'pockmark field'
p7226
(lp7227
S'ENVO:02000003'
p7228
asS'CROPLAND'
p7229
(lp7230
g997
asS'promontory'
p7231
(lp7232
g835
ag835
asS'citrus fruit beverage'
p7233
(lp7234
S'ENVO:0010068'
p7235
asS'deep sea'
p7236
(lp7237
g513
asS'rhyne'
p7238
(lp7239
g2575
asS'cold temperature habitat'
p7240
(lp7241
S'ENVO:00002026'
p7242
asS'pool (water body)'
p7243
(lp7244
g2478
ag2478
asS'leaf'
p7245
(lp7246
g245
asS'shrub'
p7247
(lp7248
g276
asS'coombe'
p7249
(lp7250
g152
asS'cart track'
p7251
(lp7252
g16
asS'corpse'
p7253
(lp7254
g774
asS'kettle'
p7255
(lp7256
g1423
asS'barrier iceberg'
p7257
(lp7258
g1292
asS'independent nation'
p7259
(lp7260
g167
asS'extreme habitat'
p7261
(lp7262
S'ENVO:00002020'
p7263
asS'tap water'
p7264
(lp7265
S'ENVO:00003096'
p7266
asS'plinthosol'
p7267
(lp7268
S'ENVO:00002250'
p7269
asS'leat'
p7270
(lp7271
g3511
asS'lava field'
p7272
(lp7273
g329
asS'garden soil'
p7274
(lp7275
S'ENVO:00002263'
p7276
asS'thoroughfare'
p7277
(lp7278
g16
asS'pebble beach'
p7279
(lp7280
g6038
asS'animal manure'
p7281
(lp7282
S'ENVO:00003031'
p7283
asS'undersea knoll'
p7284
(lp7285
g40
asS'caravan route'
p7286
(lp7287
g16
asS'sulfide-oxidizing bioreactor'
p7288
(lp7289
S'ENVO:00002210'
p7290
asS'pasta'
p7291
(lp7292
S'ENVO:0010123'
p7293
asS'water hole'
p7294
(lp7295
g6960
ag6960
asS'barren land'
p7296
(lp7297
g2540
asS'slue'
p7298
(lp7299
g309
asS'zoo'
p7300
(lp7301
g3986
asS'saddle'
p7302
(lp7303
g416
ag416
ag416
asS'glade'
p7304
(lp7305
g226
ag226
ag1786
ag890
asS'surface convergence'
p7306
(lp7307
S'ENVO:01000097'
p7308
asS'tongue'
p7309
(lp7310
g835
asS'mountain system'
p7311
(lp7312
g317
asS'plant spores'
p7313
(lp7314
g3282
asS'volcanic system'
p7315
(lp7316
g949
asS'lahar'
p7317
(lp7318
g4147
asS'radioactive thermal mineral spring'
p7319
(lp7320
S'ID:0000130'
p7321
asS'mountain group'
p7322
(lp7323
g317
asS'nidamental gland'
p7324
(lp7325
S'ID:0000054'
p7326
asS'lung'
p7327
(lp7328
S'ID:0000052'
p7329
asS'icefall'
p7330
(lp7331
g1696
ag3153
asS'custard'
p7332
(lp7333
S'ENVO:02000066'
p7334
asS'ridge'
p7335
(lp7336
g74
ag594
ag4548
ag4548
ag488
ag488
ag2903
ag2903
ag186
ag5004
ag2258
asS'sea coast'
p7337
(lp7338
g1187
asS'chyle'
p7339
(lp7340
S'ENVO:02000030'
p7341
asS'whale fall'
p7342
(lp7343
S'ENVO:01000140'
p7344
asS'heavy metal contamination site'
p7345
(lp7346
S'ID:0000136'
p7347
asS'contaminated groundwater'
p7348
(lp7349
S'ID:0000137'
p7350
asS'cooked food product'
p7351
(lp7352
S'ENVO:0010093'
p7353
asS'spurs (physiographic '
p7354
(lp7355
g4923
asS'mountain forest soil'
p7356
(lp7357
S'ENVO:00005769'
p7358
asS'feedlot'
p7359
(lp7360
g111
asS'fourth-order administrative region'
p7361
(lp7362
g198
asS'national nature reserve'
p7363
(lp7364
S'ENVO:00000366'
p7365
asS'lentil product'
p7366
(lp7367
S'ENVO:0010107'
p7368
asS'CUT'
p7369
(lp7370
g5347
asS'outwash plain'
p7371
(lp7372
g262
ag1087
ag1098
asS'beach berm'
p7373
(lp7374
g480
asS'fermenting Elaeis Palm sap'
p7375
(lp7376
S'ENVO:00002163'
p7377
asS'coke'
p7378
(lp7379
g9
asS'oil spill'
p7380
(lp7381
S'ENVO:00002061'
p7382
ag1347
asS'Hot Continental Division (220)'
p7383
(lp7384
S'ENVO:00003008'
p7385
asS'MINE'
p7386
(lp7387
g971
asS'salad dressing'
p7388
(lp7389
S'ENVO:02000077'
p7390
asS'crustal environment'
p7391
(lp7392
g192
asS'nitrobenzene contaminated sediment'
p7393
(lp7394
S'ENVO:00002182'
p7395
asS'rectum'
p7396
(lp7397
g5259
asS'machair'
p7398
(lp7399
S'ENVO:00000417'
p7400
asS'countries, 3rd order division'
p7401
(lp7402
g1792
asS'mountain pass'
p7403
(lp7404
g416
asS'kipuka'
p7405
(lp7406
S'ENVO:00000410'
p7407
asS'ISLAND'
p7408
(lp7409
g367
asS'chromate contaminated soil'
p7410
(lp7411
S'ENVO:00002145'
p7412
asS'epicontinental sea biome'
p7413
(lp7414
g5171
asS'subgingival plaque'
p7415
(lp7416
g2291
asS'medial moraine'
p7417
(lp7418
S'ENVO:00000250'
p7419
asS'cake'
p7420
(lp7421
S'ENVO:02000063'
p7422
asS'rockhouse'
p7423
(lp7424
g1082
asS'natural harbor'
p7425
(lp7426
g861
asS'dry stream valley'
p7427
(lp7428
S'ENVO:0010162'
p7429
asS'contaminated soil'
p7430
(lp7431
S'ENVO:00002116'
p7432
asS'aquatic habitat'
p7433
(lp7434
S'ENVO:00000144'
p7435
asS'Lake'
p7436
(lp7437
g709
asS'gleysol'
p7438
(lp7439
g4791
asS'plant feed'
p7440
(lp7441
S'ENVO:02000055'
p7442
asS'Fjord'
p7443
(lp7444
g164
asS'chemocline'
p7445
(lp7446
S'ENVO:00002270'
p7447
asS'lake shore'
p7448
(lp7449
g633
asS'stream sediment'
p7450
(lp7451
S'ENVO:00002127'
p7452
asS'wooded area'
p7453
(lp7454
g276
asS'campus'
p7455
(lp7456
g5999
asS'kame terrace'
p7457
(lp7458
S'ENVO:00000433'
p7459
asS'mushroom'
p7460
(lp7461
S'ENVO:02000072'
p7462
asS'DAM'
p7463
(lp7464
g2843
asS'deep sea trench'
p7465
(lp7466
g3782
asS'siliceous ooze'
p7467
(lp7468
S'ENVO:02000044'
p7469
asS'ledge'
p7470
(lp7471
g893
ag356
asS'transport feature'
p7472
(lp7473
S'ENVO:00000010'
p7474
asS'stromatolite mat'
p7475
(lp7476
S'ENVO:00002157'
p7477
asS'cheese product'
p7478
(lp7479
S'ENVO:00002189'
p7480
asS'market garden'
p7481
(lp7482
g997
asS'BACKWATER'
p7483
(lp7484
g3750
asS'root-nodules'
p7485
(lp7486
g1882
asS'plant fruit food product'
p7487
(lp7488
S'ENVO:00003877'
p7489
asS'Swamp'
p7490
(lp7491
g3156
asS'domestic cattle dairy product'
p7492
(lp7493
S'ENVO:0010030'
p7494
asS'ice cap ridge'
p7495
(lp7496
g5004
asS'cliff'
p7497
(lp7498
g1619
ag1619
ag1879
asS'fungal product'
p7499
(lp7500
S'ENVO:0010055'
p7501
asS'complex volcano'
p7502
(lp7503
g904
asS'shelf edge (ocean)'
p7504
(lp7505
g858
asS'continental slope'
p7506
(lp7507
S'ENVO:00000273'
p7508
asS'Cucumis melo fruit'
p7509
(lp7510
S'ENVO:0010065'
p7511
asS'polje'
p7512
(lp7513
S'ENVO:00000325'
p7514
asS'wastewater'
p7515
(lp7516
g1520
asS'camel milk'
p7517
(lp7518
S'ENVO:02000012'
p7519
asS'WaterChannel'
p7520
(lp7521
g847
asS'endolithic'
p7522
(lp7523
g841
asS'oil sands'
p7524
(lp7525
g1979
asS'saline pan'
p7526
(lp7527
g22
asS'liver'
p7528
(lp7529
S'ID:0000056'
p7530
as.